---
triple:          'arm64-apple-darwin'
binary-path:     '/Users/runner/work/PyMLC/PyMLC/build-wheels/cp39-cp39-macosx_11_0_arm64-RelWithDebInfo/lib/libmlc_registry.dylib'
relocations:
  - { offsetInCU: 0x4C, offset: 0x4C, size: 0x8, addend: 0x0, symName: __ZN3mlc3ffi6Object10_type_infoE, symObjAddr: 0x2CD88, symBinAddr: 0x682E0, symSize: 0x0 }
  - { offsetInCU: 0x5254, offset: 0x5254, size: 0x8, addend: 0x0, symName: __ZN3mlc3ffi7details16FuncCallUnpackedIPFNSt3__112basic_stringIcNS3_11char_traitsIcEENS3_9allocatorIcEEEENS0_7AnyViewEEEEvPKNS0_7FuncObjEiPKSA_PNS0_3AnyE, symObjAddr: 0xE6CC, symBinAddr: 0x13AE4, symSize: 0x220 }
  - { offsetInCU: 0x5DB4, offset: 0x5DB4, size: 0x8, addend: 0x0, symName: __ZN3mlc3ffi7details16FuncCallUnpackedIPFNS0_3RefINS0_6ObjectEEEvEEEvPKNS0_7FuncObjEiPKNS0_7AnyViewEPNS0_3AnyE, symObjAddr: 0x16628, symBinAddr: 0x1BA40, symSize: 0x1B4 }
  - { offsetInCU: 0x6498, offset: 0x6498, size: 0x8, addend: 0x0, symName: __ZN3mlc3ffi7details16FuncCallUnpackedIZNS1_17FuncAllocatorImplIMNS0_8ErrorObjEKFNSt3__112basic_stringIcNS5_11char_traitsIcEENS5_9allocatorIcEEEEvEvE3RunESD_EUlPKS4_E_EEvPKNS0_7FuncObjEiPKNS0_7AnyViewEPNS0_3AnyE, symObjAddr: 0x16D40, symBinAddr: 0x1C158, symSize: 0x524 }
  - { offsetInCU: 0x795B, offset: 0x795B, size: 0x8, addend: 0x0, symName: __ZN3mlc3ffi7details16FuncCallUnpackedIZNS1_17FuncAllocatorImplIMNS0_8UDictObjEKFNSt3__112basic_stringIcNS5_11char_traitsIcEENS5_9allocatorIcEEEEvEvE3RunESD_EUlPKS4_E_EEvPKNS0_7FuncObjEiPKNS0_7AnyViewEPNS0_3AnyE, symObjAddr: 0x178FC, symBinAddr: 0x1CD14, symSize: 0x524 }
  - { offsetInCU: 0x8F35, offset: 0x8F35, size: 0x8, addend: 0x0, symName: __ZN3mlc3ffi7details16FuncCallUnpackedIPFNS0_3AnyEPNS0_8UDictObjES3_EEEvPKNS0_7FuncObjEiPKNS0_7AnyViewEPS3_, symObjAddr: 0x191D4, symBinAddr: 0x1E5EC, symSize: 0x5E4 }
  - { offsetInCU: 0xA33F, offset: 0xA33F, size: 0x8, addend: 0x0, symName: __ZN3mlc3ffi7details16FuncCallUnpackedIPFNS0_3AnyEPNS0_8UDictObjExEEEvPKNS0_7FuncObjEiPKNS0_7AnyViewEPS3_, symObjAddr: 0x19E30, symBinAddr: 0x1F248, symSize: 0x79C }
  - { offsetInCU: 0xC06E, offset: 0xC06E, size: 0x8, addend: 0x0, symName: __ZN3mlc3ffi7details16FuncCallUnpackedIPFxPNS0_8UDictObjExEEEvPKNS0_7FuncObjEiPKNS0_7AnyViewEPNS0_3AnyE, symObjAddr: 0x1AAD8, symBinAddr: 0x1FEF0, symSize: 0x760 }
  - { offsetInCU: 0xDCE0, offset: 0xDCE0, size: 0x8, addend: 0x0, symName: __ZN3mlc3ffi7details16FuncCallUnpackedIZNS1_17FuncAllocatorImplIMNS0_6StrObjEKFNSt3__112basic_stringIcNS5_11char_traitsIcEENS5_9allocatorIcEEEEvEvE3RunESD_EUlPKS4_E_EEvPKNS0_7FuncObjEiPKNS0_7AnyViewEPNS0_3AnyE, symObjAddr: 0x1B80C, symBinAddr: 0x20C24, symSize: 0x524 }
  - { offsetInCU: 0xF1A3, offset: 0xF1A3, size: 0x8, addend: 0x0, symName: __ZN3mlc3ffi7details16FuncCallUnpackedIZNS1_17FuncAllocatorImplIMNS0_8UListObjEKFNSt3__112basic_stringIcNS5_11char_traitsIcEENS5_9allocatorIcEEEEvEvE3RunESD_EUlPKS4_E_EEvPKNS0_7FuncObjEiPKNS0_7AnyViewEPNS0_3AnyE, symObjAddr: 0x1C2FC, symBinAddr: 0x21714, symSize: 0x524 }
  - { offsetInCU: 0x10699, offset: 0x10699, size: 0x8, addend: 0x0, symName: __ZN3mlc3ffi7details16FuncCallUnpackedIPFNS0_3AnyEPNS0_8UListObjExEEEvPKNS0_7FuncObjEiPKNS0_7AnyViewEPS3_, symObjAddr: 0x1D3C0, symBinAddr: 0x227D8, symSize: 0x79C }
  - { offsetInCU: 0x123C8, offset: 0x123C8, size: 0x8, addend: 0x0, symName: __ZN3mlc3ffi7details16FuncCallUnpackedIPFNSt3__112basic_stringIcNS3_11char_traitsIcEENS3_9allocatorIcEEEEPvEEEvPKNS0_7FuncObjEiPKNS0_7AnyViewEPNS0_3AnyE, symObjAddr: 0x1E1D4, symBinAddr: 0x235EC, symSize: 0x4FC }
  - { offsetInCU: 0x139BF, offset: 0x139BF, size: 0x8, addend: 0x0, symName: __ZN3mlc3ffi7details16FuncCallUnpackedIPFNSt3__112basic_stringIcNS3_11char_traitsIcEENS3_9allocatorIcEEEExEEEvPKNS0_7FuncObjEiPKNS0_7AnyViewEPNS0_3AnyE, symObjAddr: 0x1EAD0, symBinAddr: 0x23EE8, symSize: 0x4FC }
  - { offsetInCU: 0x14FB6, offset: 0x14FB6, size: 0x8, addend: 0x0, symName: __ZN3mlc3ffi7details16FuncCallUnpackedIPFNSt3__112basic_stringIcNS3_11char_traitsIcEENS3_9allocatorIcEEEEdEEEvPKNS0_7FuncObjEiPKNS0_7AnyViewEPNS0_3AnyE, symObjAddr: 0x1F21C, symBinAddr: 0x24634, symSize: 0x504 }
  - { offsetInCU: 0x165AD, offset: 0x165AD, size: 0x8, addend: 0x0, symName: __ZN3mlc3ffi7details16FuncCallUnpackedIPFNSt3__112basic_stringIcNS3_11char_traitsIcEENS3_9allocatorIcEEEE8DLDeviceEEEvPKNS0_7FuncObjEiPKNS0_7AnyViewEPNS0_3AnyE, symObjAddr: 0x1FB30, symBinAddr: 0x24F48, symSize: 0x508 }
  - { offsetInCU: 0x17BB9, offset: 0x17BB9, size: 0x8, addend: 0x0, symName: '__ZN3mlc3ffi7details16FuncCallUnpackedINS0_8registry8_POD_REG3$_0EEEvPKNS0_7FuncObjEiPKNS0_7AnyViewEPNS0_3AnyE', symObjAddr: 0x20A8C, symBinAddr: 0x25EA4, symSize: 0x438 }
  - { offsetInCU: 0x18EC6, offset: 0x18EC6, size: 0x8, addend: 0x0, symName: __ZN3mlc3ffi7details16FuncCallUnpackedIPFNSt3__112basic_stringIcNS3_11char_traitsIcEENS3_9allocatorIcEEEE10DLDataTypeEEEvPKNS0_7FuncObjEiPKNS0_7AnyViewEPNS0_3AnyE, symObjAddr: 0x21130, symBinAddr: 0x26548, symSize: 0x508 }
  - { offsetInCU: 0x1A4BD, offset: 0x1A4BD, size: 0x8, addend: 0x0, symName: '__ZN3mlc3ffi7details16FuncCallUnpackedINS0_8registry8_POD_REG3$_1EEEvPKNS0_7FuncObjEiPKNS0_7AnyViewEPNS0_3AnyE', symObjAddr: 0x224DC, symBinAddr: 0x278F4, symSize: 0x438 }
  - { offsetInCU: 0x1B826, offset: 0x1B826, size: 0x8, addend: 0x0, symName: __ZN3mlc3ffi7details16FuncCallUnpackedIPFNSt3__112basic_stringIcNS3_11char_traitsIcEENS3_9allocatorIcEEEEPKcEEEvPKNS0_7FuncObjEiPKNS0_7AnyViewEPNS0_3AnyE, symObjAddr: 0x22B84, symBinAddr: 0x27F9C, symSize: 0x510 }
  - { offsetInCU: 0x1CEAB, offset: 0x1CEAB, size: 0x8, addend: 0x0, symName: '__ZN3mlc3ffi7details16FuncCallUnpackedIN12_GLOBAL__N_13$_2EEEvPKNS0_7FuncObjEiPKNS0_7AnyViewEPNS0_3AnyE', symObjAddr: 0x234C0, symBinAddr: 0x288D8, symSize: 0x580 }
  - { offsetInCU: 0x1EDAB, offset: 0x1EDAB, size: 0x8, addend: 0x0, symName: __ZN3mlc3ffi7details6DecRefEP6MLCAny, symObjAddr: 0x9AD4, symBinAddr: 0xEEEC, symSize: 0x28 }
  - { offsetInCU: 0x1EE3A, offset: 0x1EE3A, size: 0x8, addend: 0x0, symName: __ZN3mlc3ffi7details19MLCErrorFromBuilderEPKc12MLCByteArrayS4_, symObjAddr: 0xDAE0, symBinAddr: 0x12EF8, symSize: 0x128 }
  - { offsetInCU: 0x1F2DD, offset: 0x1F2DD, size: 0x8, addend: 0x0, symName: __ZN3mlc3ffi7details14FuncCallPackedIZNS0_7FuncObj11FromForeignEPvPFvS4_EPFiPKviPK6MLCAnyPS9_EEUliSB_SC_E_EEvPKS3_iPKNS0_7AnyViewEPNS0_3AnyE, symObjAddr: 0x14B18, symBinAddr: 0x19F30, symSize: 0x8 }
  - { offsetInCU: 0x1F359, offset: 0x1F359, size: 0x8, addend: 0x0, symName: __ZN3mlc3ffi7details14FuncCallPackedIZNS0_7FuncObj11FromForeignEPvPFvS4_EPFiPKviPK6MLCAnyPS9_EEUliSB_SC_E0_EEvPKS3_iPKNS0_7AnyViewEPNS0_3AnyE, symObjAddr: 0x1520C, symBinAddr: 0x1A624, symSize: 0x8 }
  - { offsetInCU: 0x1F93B, offset: 0x1F93B, size: 0x8, addend: 0x0, symName: __ZN3mlc3ffi7details14FuncCallPackedIPFviPKNS0_7AnyViewEPNS0_3AnyEEEEvPKNS0_7FuncObjEiS5_S7_, symObjAddr: 0x1904C, symBinAddr: 0x1E464, symSize: 0x14 }
  - { offsetInCU: 0x2125E, offset: 0x2125E, size: 0x8, addend: 0x0, symName: __ZN3mlc3ffi6InitOfINS0_6ObjectEJEEENS0_3RefIS2_EEDpOT0_, symObjAddr: 0x4C0, symBinAddr: 0x58D8, symSize: 0x4C }
  - { offsetInCU: 0x21D60, offset: 0x21D60, size: 0x8, addend: 0x0, symName: __ZN3mlc3ffi15String2DLDeviceERKNSt3__112basic_stringIcNS1_11char_traitsIcEENS1_9allocatorIcEEEE, symObjAddr: 0x20590, symBinAddr: 0x259A8, symSize: 0x298 }
  - { offsetInCU: 0x2296B, offset: 0x2296B, size: 0x8, addend: 0x0, symName: __ZN3mlc3ffi17String2DLDataTypeERKNSt3__112basic_stringIcNS1_11char_traitsIcEENS1_9allocatorIcEEEE, symObjAddr: 0x21B88, symBinAddr: 0x26FA0, symSize: 0x7D0 }
  - { offsetInCU: 0x4844A, offset: 0x4844A, size: 0x8, addend: 0x0, symName: __ZNSt3__119piecewise_constructE, symObjAddr: 0x2C954, symBinAddr: 0x5A36C, symSize: 0x0 }
  - { offsetInCU: 0x4DC8A, offset: 0x4DC8A, size: 0x8, addend: 0x0, symName: __ZNSt3__124__put_character_sequenceB8ue170006IcNS_11char_traitsIcEEEERNS_13basic_ostreamIT_T0_EES7_PKS4_m, symObjAddr: 0xC0C8, symBinAddr: 0x114E0, symSize: 0x164 }
  - { offsetInCU: 0x4F2B7, offset: 0x4F2B7, size: 0x8, addend: 0x0, symName: __ZNSt3__111__introsortINS_17_ClassicAlgPolicyERZN3mlc3ffi8registry15TypeInfoWrapper9SetFieldsExP12MLCTypeFieldEUlRKS6_S9_E_S7_Lb0EEEvT1_SC_T0_NS_15iterator_traitsISC_E15difference_typeEb, symObjAddr: 0x114C4, symBinAddr: 0x168DC, symSize: 0x9D0 }
  - { offsetInCU: 0x50CF3, offset: 0x50CF3, size: 0x8, addend: 0x0, symName: __ZNSt3__127__insertion_sort_incompleteB8ue170006INS_17_ClassicAlgPolicyERZN3mlc3ffi8registry15TypeInfoWrapper9SetFieldsExP12MLCTypeFieldEUlRKS6_S9_E_S7_EEbT1_SC_T0_, symObjAddr: 0x11E94, symBinAddr: 0x172AC, symSize: 0x334 }
  - { offsetInCU: 0x51B90, offset: 0x51B90, size: 0x8, addend: 0x0, symName: __ZNSt3__111__introsortINS_17_ClassicAlgPolicyERZN3mlc3ffi8registry15TypeInfoWrapper10SetMethodsExP13MLCTypeMethodEUlRKS6_S9_E_S7_Lb0EEEvT1_SC_T0_NS_15iterator_traitsISC_E15difference_typeEb, symObjAddr: 0x133AC, symBinAddr: 0x187C4, symSize: 0x420 }
  - { offsetInCU: 0x522C2, offset: 0x522C2, size: 0x8, addend: 0x0, symName: __ZNSt3__111__sift_downB8ue170006INS_17_ClassicAlgPolicyERZN3mlc3ffi8registry15TypeInfoWrapper10SetMethodsExP13MLCTypeMethodEUlRKS6_S9_E_S7_EEvT1_OT0_NS_15iterator_traitsISC_E15difference_typeESC_, symObjAddr: 0x13DD0, symBinAddr: 0x191E8, symSize: 0x160 }
  - { offsetInCU: 0x5240C, offset: 0x5240C, size: 0x8, addend: 0x0, symName: __ZNSt3__131__partition_with_equals_on_leftB8ue170006INS_17_ClassicAlgPolicyEP13MLCTypeMethodRZN3mlc3ffi8registry15TypeInfoWrapper10SetMethodsExS3_EUlRKS2_S9_E_EET0_SC_SC_T1_, symObjAddr: 0x138C0, symBinAddr: 0x18CD8, symSize: 0x100 }
  - { offsetInCU: 0x525ED, offset: 0x525ED, size: 0x8, addend: 0x0, symName: __ZNSt3__132__partition_with_equals_on_rightB8ue170006INS_17_ClassicAlgPolicyEP13MLCTypeMethodRZN3mlc3ffi8registry15TypeInfoWrapper10SetMethodsExS3_EUlRKS2_S9_E_EENS_4pairIT0_bEESD_SD_T1_, symObjAddr: 0x139C0, symBinAddr: 0x18DD8, symSize: 0x104 }
  - { offsetInCU: 0x527CE, offset: 0x527CE, size: 0x8, addend: 0x0, symName: __ZNSt3__127__insertion_sort_incompleteB8ue170006INS_17_ClassicAlgPolicyERZN3mlc3ffi8registry15TypeInfoWrapper10SetMethodsExP13MLCTypeMethodEUlRKS6_S9_E_S7_EEbT1_SC_T0_, symObjAddr: 0x13AC4, symBinAddr: 0x18EDC, symSize: 0x1A0 }
  - { offsetInCU: 0x558F5, offset: 0x558F5, size: 0x8, addend: 0x0, symName: __ZNSt3__1lsB8ue170006INS_11char_traitsIcEEEERNS_13basic_ostreamIcT_EES6_PKc, symObjAddr: 0xAA64, symBinAddr: 0xFE7C, symSize: 0x34 }
  - { offsetInCU: 0x564FA, offset: 0x564FA, size: 0x8, addend: 0x0, symName: __ZNSt3__120__throw_length_errorB8ue170006EPKc, symObjAddr: 0xBA38, symBinAddr: 0x10E50, symSize: 0x50 }
  - { offsetInCU: 0x565F6, offset: 0x565F6, size: 0x8, addend: 0x0, symName: __ZNSt3__116__pad_and_outputB8ue170006IcNS_11char_traitsIcEEEENS_19ostreambuf_iteratorIT_T0_EES6_PKS4_S8_S8_RNS_8ios_baseES4_, symObjAddr: 0xC22C, symBinAddr: 0x11644, symSize: 0x194 }
  - { offsetInCU: 0x56D6C, offset: 0x56D6C, size: 0x8, addend: 0x0, symName: __ZNSt3__1lsB8ue170006IcNS_11char_traitsIcEENS_9allocatorIcEEEERNS_13basic_ostreamIT_T0_EES9_RKNS_12basic_stringIS6_S7_T1_EE, symObjAddr: 0xDFAC, symBinAddr: 0x133C4, symSize: 0x1C }
  - { offsetInCU: 0x56D93, offset: 0x56D93, size: 0x8, addend: 0x0, symName: __ZNSt3__1lsB8ue170006IcNS_11char_traitsIcEENS_9allocatorIcEEEERNS_13basic_ostreamIT_T0_EES9_RKNS_12basic_stringIS6_S7_T1_EE, symObjAddr: 0xDFAC, symBinAddr: 0x133C4, symSize: 0x1C }
  - { offsetInCU: 0x56DB1, offset: 0x56DB1, size: 0x8, addend: 0x0, symName: __ZNSt3__1lsB8ue170006IcNS_11char_traitsIcEENS_9allocatorIcEEEERNS_13basic_ostreamIT_T0_EES9_RKNS_12basic_stringIS6_S7_T1_EE, symObjAddr: 0xDFAC, symBinAddr: 0x133C4, symSize: 0x1C }
  - { offsetInCU: 0x56DCF, offset: 0x56DCF, size: 0x8, addend: 0x0, symName: __ZNSt3__1lsB8ue170006IcNS_11char_traitsIcEENS_9allocatorIcEEEERNS_13basic_ostreamIT_T0_EES9_RKNS_12basic_stringIS6_S7_T1_EE, symObjAddr: 0xDFAC, symBinAddr: 0x133C4, symSize: 0x1C }
  - { offsetInCU: 0x57279, offset: 0x57279, size: 0x8, addend: 0x0, symName: __ZNSt3__120__throw_out_of_rangeB8ue170006EPKc, symObjAddr: 0x10358, symBinAddr: 0x15770, symSize: 0x50 }
  - { offsetInCU: 0x57AB2, offset: 0x57AB2, size: 0x8, addend: 0x0, symName: __ZNSt3__17__sort4B8ue170006INS_17_ClassicAlgPolicyERZN3mlc3ffi8registry15TypeInfoWrapper9SetFieldsExP12MLCTypeFieldEUlRKS6_S9_E_S7_EEvT1_SC_SC_SC_T0_, symObjAddr: 0x121C8, symBinAddr: 0x175E0, symSize: 0x10C }
  - { offsetInCU: 0x57F4C, offset: 0x57F4C, size: 0x8, addend: 0x0, symName: __ZNSt3__119__partial_sort_implB8ue170006INS_17_ClassicAlgPolicyERZN3mlc3ffi8registry15TypeInfoWrapper9SetFieldsExP12MLCTypeFieldEUlRKS6_S9_E_S7_S7_EET1_SC_SC_T2_OT0_, symObjAddr: 0x122D4, symBinAddr: 0x176EC, symSize: 0x370 }
  - { offsetInCU: 0x58B19, offset: 0x58B19, size: 0x8, addend: 0x0, symName: __ZNSt3__17__sort3B8ue170006INS_17_ClassicAlgPolicyERZN3mlc3ffi8registry15TypeInfoWrapper10SetMethodsExP13MLCTypeMethodEUlRKS6_S9_E_S7_EEjT1_SC_SC_T0_, symObjAddr: 0x137CC, symBinAddr: 0x18BE4, symSize: 0xF4 }
  - { offsetInCU: 0x58DF6, offset: 0x58DF6, size: 0x8, addend: 0x0, symName: __ZNSt3__17__sort4B8ue170006INS_17_ClassicAlgPolicyERZN3mlc3ffi8registry15TypeInfoWrapper10SetMethodsExP13MLCTypeMethodEUlRKS6_S9_E_S7_EEvT1_SC_SC_SC_T0_, symObjAddr: 0x13C64, symBinAddr: 0x1907C, symSize: 0xA0 }
  - { offsetInCU: 0x59032, offset: 0x59032, size: 0x8, addend: 0x0, symName: __ZNSt3__17__sort5B8ue170006INS_17_ClassicAlgPolicyERZN3mlc3ffi8registry15TypeInfoWrapper10SetMethodsExP13MLCTypeMethodEUlRKS6_S9_E_S7_EEvT1_SC_SC_SC_SC_T0_, symObjAddr: 0x13D04, symBinAddr: 0x1911C, symSize: 0xCC }
  - { offsetInCU: 0x5930A, offset: 0x5930A, size: 0x8, addend: 0x0, symName: __ZNSt3__111__sort_heapB8ue170006INS_17_ClassicAlgPolicyERZN3mlc3ffi8registry15TypeInfoWrapper10SetMethodsExP13MLCTypeMethodEUlRKS6_S9_E_S7_EEvT1_SC_OT0_, symObjAddr: 0x13F30, symBinAddr: 0x19348, symSize: 0x174 }
  - { offsetInCU: 0x59A81, offset: 0x59A81, size: 0x8, addend: 0x0, symName: __ZNSt3__135__uninitialized_allocator_copy_implB8ue170006INS_9allocatorIN3mlc3ffi3AnyEEEPKNS3_7AnyViewES8_PS4_EET2_RT_T0_T1_SA_, symObjAddr: 0x1CFFC, symBinAddr: 0x22414, symSize: 0x140 }
  - { offsetInCU: 0x59E4F, offset: 0x59E4F, size: 0x8, addend: 0x0, symName: __ZNSt3__111make_uniqueB8ue170006IN3mlc3ffi10DSOLibraryEJRNS_12basic_stringIcNS_11char_traitsIcEENS_9allocatorIcEEEEEEENS_11__unique_ifIT_E15__unique_singleEDpOT0_, symObjAddr: 0x23D44, symBinAddr: 0x2915C, symSize: 0x104 }
  - { offsetInCU: 0x5ADD8, offset: 0x5ADD8, size: 0x8, addend: 0x0, symName: __ZSt28__throw_bad_array_new_lengthB8ue170006v, symObjAddr: 0xBAAC, symBinAddr: 0x10EC4, symSize: 0x28 }
  - { offsetInCU: 0x5B063, offset: 0x5B063, size: 0x8, addend: 0x0, symName: __ZN3mlc3ffi6Object13_type_reflectE, symObjAddr: 0x2CD98, symBinAddr: 0x682F0, symSize: 0x0 }
  - { offsetInCU: 0x5B076, offset: 0x5B076, size: 0x8, addend: 0x0, symName: __ZN3mlc3ffi9PODTraitsI8DLDevicevE15str2device_typeE, symObjAddr: 0x2CDA8, symBinAddr: 0x68300, symSize: 0x0 }
  - { offsetInCU: 0x5B619, offset: 0x5B619, size: 0x8, addend: 0x0, symName: __ZN3mlc3ffi9PODTraitsI10DLDataTypevE6presetE, symObjAddr: 0x2CDD8, symBinAddr: 0x68330, symSize: 0x0 }
  - { offsetInCU: 0x5BB24, offset: 0x5BB24, size: 0x8, addend: 0x0, symName: __ZN3mlc3ffi9ObjectRef13_type_reflectE, symObjAddr: 0x2CE08, symBinAddr: 0x68360, symSize: 0x0 }
  - { offsetInCU: 0x5BBA0, offset: 0x5BBA0, size: 0x8, addend: 0x0, symName: __ZN3mlc3ffi8ErrorObj10_type_infoE, symObjAddr: 0x2CE18, symBinAddr: 0x68370, symSize: 0x0 }
  - { offsetInCU: 0x5BDB8, offset: 0x5BDB8, size: 0x8, addend: 0x0, symName: __ZN3mlc3ffi8ErrorObj13_type_reflectE, symObjAddr: 0x2CE28, symBinAddr: 0x68380, symSize: 0x0 }
  - { offsetInCU: 0x5BDCB, offset: 0x5BDCB, size: 0x8, addend: 0x0, symName: __ZN3mlc3ffi5Error13_type_reflectE, symObjAddr: 0x2CE38, symBinAddr: 0x68390, symSize: 0x0 }
  - { offsetInCU: 0x5BE15, offset: 0x5BE15, size: 0x8, addend: 0x0, symName: __ZN3mlc3ffi8UDictObj10_type_infoE, symObjAddr: 0x2CE48, symBinAddr: 0x683A0, symSize: 0x0 }
  - { offsetInCU: 0x5BFAF, offset: 0x5BFAF, size: 0x8, addend: 0x0, symName: __ZN3mlc3ffi8UDictObj13_type_reflectE, symObjAddr: 0x2CE58, symBinAddr: 0x683B0, symSize: 0x0 }
  - { offsetInCU: 0x5BFC2, offset: 0x5BFC2, size: 0x8, addend: 0x0, symName: __ZN3mlc3ffi5UDict13_type_reflectE, symObjAddr: 0x2CE68, symBinAddr: 0x683C0, symSize: 0x0 }
  - { offsetInCU: 0x5C070, offset: 0x5C070, size: 0x8, addend: 0x0, symName: __ZN3mlc3ffi6StrObj10_type_infoE, symObjAddr: 0x2CE78, symBinAddr: 0x683D0, symSize: 0x0 }
  - { offsetInCU: 0x5C083, offset: 0x5C083, size: 0x8, addend: 0x0, symName: __ZN3mlc3ffi6StrObj13_type_reflectE, symObjAddr: 0x2CE88, symBinAddr: 0x683E0, symSize: 0x0 }
  - { offsetInCU: 0x5C096, offset: 0x5C096, size: 0x8, addend: 0x0, symName: __ZN3mlc3ffi3Str13_type_reflectE, symObjAddr: 0x2CE98, symBinAddr: 0x683F0, symSize: 0x0 }
  - { offsetInCU: 0x5C0E0, offset: 0x5C0E0, size: 0x8, addend: 0x0, symName: __ZN3mlc3ffi7FuncObj10_type_infoE, symObjAddr: 0x2CEA8, symBinAddr: 0x68400, symSize: 0x0 }
  - { offsetInCU: 0x5C15E, offset: 0x5C15E, size: 0x8, addend: 0x0, symName: __ZN3mlc3ffi7FuncObj13_type_reflectE, symObjAddr: 0x2CEB8, symBinAddr: 0x68410, symSize: 0x0 }
  - { offsetInCU: 0x5C171, offset: 0x5C171, size: 0x8, addend: 0x0, symName: __ZN3mlc3ffi4Func13_type_reflectE, symObjAddr: 0x2CEC8, symBinAddr: 0x68420, symSize: 0x0 }
  - { offsetInCU: 0x5C1BB, offset: 0x5C1BB, size: 0x8, addend: 0x0, symName: __ZN3mlc3ffi8UListObj10_type_infoE, symObjAddr: 0x2CED8, symBinAddr: 0x68430, symSize: 0x0 }
  - { offsetInCU: 0x5C297, offset: 0x5C297, size: 0x8, addend: 0x0, symName: __ZN3mlc3ffi8UListObj13_type_reflectE, symObjAddr: 0x2CEE8, symBinAddr: 0x68440, symSize: 0x0 }
  - { offsetInCU: 0x5C2AA, offset: 0x5C2AA, size: 0x8, addend: 0x0, symName: __ZN3mlc3ffi5UList13_type_reflectE, symObjAddr: 0x2CEF8, symBinAddr: 0x68450, symSize: 0x0 }
  - { offsetInCU: 0x5C32B, offset: 0x5C32B, size: 0x8, addend: 0x0, symName: __ZN3mlc3ffi8registry8_POD_REG5_noneE, symObjAddr: 0x2CF08, symBinAddr: 0x68460, symSize: 0x0 }
  - { offsetInCU: 0x5C33E, offset: 0x5C33E, size: 0x8, addend: 0x0, symName: __ZN3mlc3ffi8registry8_POD_REG4_intE, symObjAddr: 0x2CF18, symBinAddr: 0x68470, symSize: 0x0 }
  - { offsetInCU: 0x5C351, offset: 0x5C351, size: 0x8, addend: 0x0, symName: __ZN3mlc3ffi8registry8_POD_REG6_floatE, symObjAddr: 0x2CF28, symBinAddr: 0x68480, symSize: 0x0 }
  - { offsetInCU: 0x5C364, offset: 0x5C364, size: 0x8, addend: 0x0, symName: __ZN3mlc3ffi8registry8_POD_REG4_ptrE, symObjAddr: 0x2CF38, symBinAddr: 0x68490, symSize: 0x0 }
  - { offsetInCU: 0x5C377, offset: 0x5C377, size: 0x8, addend: 0x0, symName: __ZN3mlc3ffi8registry8_POD_REG7_deviceE, symObjAddr: 0x2CF48, symBinAddr: 0x684A0, symSize: 0x0 }
  - { offsetInCU: 0x5C38A, offset: 0x5C38A, size: 0x8, addend: 0x0, symName: __ZN3mlc3ffi8registry8_POD_REG6_dtypeE, symObjAddr: 0x2CF58, symBinAddr: 0x684B0, symSize: 0x0 }
  - { offsetInCU: 0x5C39D, offset: 0x5C39D, size: 0x8, addend: 0x0, symName: __ZN3mlc3ffi8registry8_POD_REG4_strE, symObjAddr: 0x2CF68, symBinAddr: 0x684C0, symSize: 0x0 }
  - { offsetInCU: 0x5EA1D, offset: 0x5EA1D, size: 0x8, addend: 0x0, symName: __ZN3mlc3ffi8registry9TypeTable6GlobalEv, symObjAddr: 0x72D0, symBinAddr: 0xC6E8, symSize: 0x70 }
  - { offsetInCU: 0x5EA3D, offset: 0x5EA3D, size: 0x8, addend: 0x0, symName: __ZZN3mlc3ffi8registry9TypeTable6GlobalEvE8instance, symObjAddr: 0x3504F8, symBinAddr: 0x68680, symSize: 0x0 }
  - { offsetInCU: 0x5EA76, offset: 0x5EA76, size: 0x8, addend: 0x0, symName: _MLCErrorGetInfo, symObjAddr: 0xB260, symBinAddr: 0x10678, symSize: 0x5E0 }
  - { offsetInCU: 0x5F7F4, offset: 0x5F7F4, size: 0x8, addend: 0x0, symName: __ZN3mlc3ffi9DictBlock18kNextProbeLocationE, symObjAddr: 0x2C998, symBinAddr: 0x5A3B0, symSize: 0x0 }
  - { offsetInCU: 0x6018A, offset: 0x6018A, size: 0x8, addend: 0x0, symName: __ZN3mlc3ffi7FuncObj11FromForeignEPvPFvS2_EPFiPKviPK6MLCAnyPS7_E, symObjAddr: 0xAD74, symBinAddr: 0x1018C, symSize: 0x144 }
  - { offsetInCU: 0x62F41, offset: 0x62F41, size: 0x8, addend: 0x0, symName: _MLCTypeRegister, symObjAddr: 0x758C, symBinAddr: 0xC9A4, symSize: 0x32C }
  - { offsetInCU: 0x63847, offset: 0x63847, size: 0x8, addend: 0x0, symName: __ZN3mlc3ffi7details16ReflectionHelperD1Ev, symObjAddr: 0x0, symBinAddr: 0x5418, symSize: 0xC0 }
  - { offsetInCU: 0x641EC, offset: 0x641EC, size: 0x8, addend: 0x0, symName: __ZNSt3__112__hash_tableINS_17__hash_value_typeINS_12basic_stringIcNS_11char_traitsIcEENS_9allocatorIcEEEE12DLDeviceTypeEENS_22__unordered_map_hasherIS7_S9_NS_4hashIS7_EENS_8equal_toIS7_EELb1EEENS_21__unordered_map_equalIS7_S9_SE_SC_Lb1EEENS5_IS9_EEE25__emplace_unique_key_argsIS7_JRKNS_4pairIKS7_S8_EEEEENSL_INS_15__hash_iteratorIPNS_11__hash_nodeIS9_PvEEEEbEERKT_DpOT0_, symObjAddr: 0x15A00, symBinAddr: 0x1AE18, symSize: 0x380 }
  - { offsetInCU: 0x648C1, offset: 0x648C1, size: 0x8, addend: 0x0, symName: __ZNSt3__113unordered_mapINS_12basic_stringIcNS_11char_traitsIcEENS_9allocatorIcEEEE12DLDeviceTypeNS_4hashIS6_EENS_8equal_toIS6_EENS4_INS_4pairIKS6_S7_EEEEED1B8ue170006Ev, symObjAddr: 0xC0, symBinAddr: 0x54D8, symSize: 0x68 }
  - { offsetInCU: 0x64F04, offset: 0x64F04, size: 0x8, addend: 0x0, symName: __ZNSt3__112__hash_tableINS_17__hash_value_typeINS_12basic_stringIcNS_11char_traitsIcEENS_9allocatorIcEEEE10DLDataTypeEENS_22__unordered_map_hasherIS7_S9_NS_4hashIS7_EENS_8equal_toIS7_EELb1EEENS_21__unordered_map_equalIS7_S9_SE_SC_Lb1EEENS5_IS9_EEE25__emplace_unique_key_argsIS7_JRKNS_4pairIKS7_S8_EEEEENSL_INS_15__hash_iteratorIPNS_11__hash_nodeIS9_PvEEEEbEERKT_DpOT0_, symObjAddr: 0x16014, symBinAddr: 0x1B42C, symSize: 0x380 }
  - { offsetInCU: 0x655D9, offset: 0x655D9, size: 0x8, addend: 0x0, symName: __ZNSt3__113unordered_mapINS_12basic_stringIcNS_11char_traitsIcEENS_9allocatorIcEEEE10DLDataTypeNS_4hashIS6_EENS_8equal_toIS6_EENS4_INS_4pairIKS6_S7_EEEEED1B8ue170006Ev, symObjAddr: 0x128, symBinAddr: 0x5540, symSize: 0x68 }
  - { offsetInCU: 0x65A77, offset: 0x65A77, size: 0x8, addend: 0x0, symName: __ZN3mlc3ffi7details16ReflectionHelper6MethodIRFNS0_3RefINS0_6ObjectEEEvEEERS2_PKcOT_, symObjAddr: 0x190, symBinAddr: 0x55A8, symSize: 0x330 }
  - { offsetInCU: 0x66683, offset: 0x66683, size: 0x8, addend: 0x0, symName: __ZN3mlc3ffi7details16ReflectionHelper6MethodIPFNSt3__112basic_stringIcNS4_11char_traitsIcEENS4_9allocatorIcEEEENS0_7AnyViewEEEERS2_PKcOT_, symObjAddr: 0xE39C, symBinAddr: 0x137B4, symSize: 0x330 }
  - { offsetInCU: 0x67289, offset: 0x67289, size: 0x8, addend: 0x0, symName: _MLCTypeDefReflection, symObjAddr: 0x8568, symBinAddr: 0xD980, symSize: 0x338 }
  - { offsetInCU: 0x67F1E, offset: 0x67F1E, size: 0x8, addend: 0x0, symName: __ZNSt3__16vectorIN3mlc3ffi3AnyENS_9allocatorIS3_EEE21__push_back_slow_pathIS3_EEvOT_, symObjAddr: 0xEB4C, symBinAddr: 0x13F64, symSize: 0x17C }
  - { offsetInCU: 0x68482, offset: 0x68482, size: 0x8, addend: 0x0, symName: __ZNKSt3__16vectorI13MLCTypeMethodNS_9allocatorIS1_EEE20__throw_length_errorB8ue170006Ev, symObjAddr: 0xECDC, symBinAddr: 0x140F4, symSize: 0x14 }
  - { offsetInCU: 0x684AB, offset: 0x684AB, size: 0x8, addend: 0x0, symName: __ZNSt3__16vectorINS_10unique_ptrIN3mlc3ffi8registry15TypeInfoWrapperENS_14default_deleteIS5_EEEENS_9allocatorIS8_EEE8__appendEm, symObjAddr: 0xECF0, symBinAddr: 0x14108, symSize: 0x168 }
  - { offsetInCU: 0x684B6, offset: 0x684B6, size: 0x8, addend: 0x0, symName: __ZN3mlc3ffi3RefINS0_7FuncObjEED1Ev, symObjAddr: 0xAEB8, symBinAddr: 0x102D0, symSize: 0x50 }
  - { offsetInCU: 0x68677, offset: 0x68677, size: 0x8, addend: 0x0, symName: __ZN3mlc3ffi7details16ReflectionHelper6MethodIMNS0_8ErrorObjEKFNSt3__112basic_stringIcNS5_11char_traitsIcEENS5_9allocatorIcEEEEvEEERS2_PKcOT_, symObjAddr: 0x50C, symBinAddr: 0x5924, symSize: 0x334 }
  - { offsetInCU: 0x6946E, offset: 0x6946E, size: 0x8, addend: 0x0, symName: __ZNK3mlc3ffi8ErrorObj7__str__Ev, symObjAddr: 0x840, symBinAddr: 0x5C58, symSize: 0x90 }
  - { offsetInCU: 0x697FB, offset: 0x697FB, size: 0x8, addend: 0x0, symName: __ZN3mlc3ffi7details16ReflectionHelper6MethodIMNS0_8UDictObjEKFNSt3__112basic_stringIcNS5_11char_traitsIcEENS5_9allocatorIcEEEEvEEERS2_PKcOT_, symObjAddr: 0x8D0, symBinAddr: 0x5CE8, symSize: 0x334 }
  - { offsetInCU: 0x6980D, offset: 0x6980D, size: 0x8, addend: 0x0, symName: __ZNKSt3__112basic_stringIcNS_11char_traitsIcEENS_9allocatorIcEEE20__throw_length_errorB8ue170006Ev, symObjAddr: 0xBA24, symBinAddr: 0x10E3C, symSize: 0x14 }
  - { offsetInCU: 0x69836, offset: 0x69836, size: 0x8, addend: 0x0, symName: __ZNSt3__120__throw_length_errorB8ue170006EPKc, symObjAddr: 0xBA38, symBinAddr: 0x10E50, symSize: 0x50 }
  - { offsetInCU: 0x69873, offset: 0x69873, size: 0x8, addend: 0x0, symName: __ZN3mlc3ffi7details16ReflectionHelper6MethodIMNS0_8UDictObjEKFNSt3__112basic_stringIcNS5_11char_traitsIcEENS5_9allocatorIcEEEEvEEERS2_PKcOT_, symObjAddr: 0x8D0, symBinAddr: 0x5CE8, symSize: 0x334 }
  - { offsetInCU: 0x6A48C, offset: 0x6A48C, size: 0x8, addend: 0x0, symName: __ZN3mlc3ffi7details16ReflectionHelper6MethodIRFviPKNS0_7AnyViewEPNS0_3AnyEEEERS2_PKcOT_, symObjAddr: 0xE34, symBinAddr: 0x624C, symSize: 0x330 }
  - { offsetInCU: 0x6B098, offset: 0x6B098, size: 0x8, addend: 0x0, symName: __ZN3mlc3ffi7details16ReflectionHelper6MethodIRFNS0_3AnyEPNS0_8UDictObjES4_EEERS2_PKcOT_, symObjAddr: 0x1644, symBinAddr: 0x6A5C, symSize: 0x330 }
  - { offsetInCU: 0x6BCA4, offset: 0x6BCA4, size: 0x8, addend: 0x0, symName: __ZN3mlc3ffi7details16ReflectionHelper6MethodIRFNS0_3AnyEPNS0_8UDictObjExEEERS2_PKcOT_, symObjAddr: 0x2448, symBinAddr: 0x7860, symSize: 0x330 }
  - { offsetInCU: 0x6C8B0, offset: 0x6C8B0, size: 0x8, addend: 0x0, symName: __ZN3mlc3ffi7details16ReflectionHelper6MethodIRFxPNS0_8UDictObjExEEERS2_PKcOT_, symObjAddr: 0x2800, symBinAddr: 0x7C18, symSize: 0x330 }
  - { offsetInCU: 0x6D6E1, offset: 0x6D6E1, size: 0x8, addend: 0x0, symName: __ZNK3mlc3ffi8UDictObj7__str__Ev, symObjAddr: 0xC04, symBinAddr: 0x601C, symSize: 0x230 }
  - { offsetInCU: 0x6DC1B, offset: 0x6DC1B, size: 0x8, addend: 0x0, symName: __ZZNK3mlc3ffi8UDictObj7__str__EvENKUlPhP6MLCAnyS4_E_clES2_S4_S4_, symObjAddr: 0xC3C0, symBinAddr: 0x117D8, symSize: 0x155C }
  - { offsetInCU: 0x71D4D, offset: 0x71D4D, size: 0x8, addend: 0x0, symName: __ZNKSt3__115basic_stringbufIcNS_11char_traitsIcEENS_9allocatorIcEEE3strEv, symObjAddr: 0xE188, symBinAddr: 0x135A0, symSize: 0x214 }
  - { offsetInCU: 0x722C1, offset: 0x722C1, size: 0x8, addend: 0x0, symName: __ZN3mlc3ffi7details16ReflectionHelper6MethodIPFNSt3__112basic_stringIcNS4_11char_traitsIcEENS4_9allocatorIcEEEENS0_7AnyViewEEEERS2_PKcOT_, symObjAddr: 0xE39C, symBinAddr: 0x137B4, symSize: 0x330 }
  - { offsetInCU: 0x722D3, offset: 0x722D3, size: 0x8, addend: 0x0, symName: __ZNSt3__119basic_ostringstreamIcNS_11char_traitsIcEENS_9allocatorIcEEED1Ev, symObjAddr: 0xBAD4, symBinAddr: 0x10EEC, symSize: 0x8C }
  - { offsetInCU: 0x729B4, offset: 0x729B4, size: 0x8, addend: 0x0, symName: __ZN3mlc3ffi8DictBase3ffiINS0_8UDictObjEE3NewEiPKNS0_7AnyViewEPNS0_3AnyE, symObjAddr: 0x1164, symBinAddr: 0x657C, symSize: 0x4E0 }
  - { offsetInCU: 0x7343E, offset: 0x7343E, size: 0x8, addend: 0x0, symName: __ZN3mlc3ffi8DictBase14InsertOrLookupINS0_8UDictObjEEEPNSt3__14pairI6MLCAnyS6_EENS0_3AnyE, symObjAddr: 0x183F4, symBinAddr: 0x1D80C, symSize: 0xB8 }
  - { offsetInCU: 0x7361C, offset: 0x7361C, size: 0x8, addend: 0x0, symName: __ZN3mlc3ffi7details12ErrorBuilderC1EPKc12MLCByteArray, symObjAddr: 0xD91C, symBinAddr: 0x12D34, symSize: 0xDC }
  - { offsetInCU: 0x7372D, offset: 0x7372D, size: 0x8, addend: 0x0, symName: __ZN3mlc3ffi7details12ErrorBuilderD1Ev, symObjAddr: 0xD9F8, symBinAddr: 0x12E10, symSize: 0xC }
  - { offsetInCU: 0x73758, offset: 0x73758, size: 0x8, addend: 0x0, symName: __ZN3mlc3ffi7details12ErrorBuilderD2Ev, symObjAddr: 0xDA04, symBinAddr: 0x12E1C, symSize: 0xDC }
  - { offsetInCU: 0x7376B, offset: 0x7376B, size: 0x8, addend: 0x0, symName: __ZN3mlc3ffi3RefINS0_8UDictObjEED1Ev, symObjAddr: 0x184AC, symBinAddr: 0x1D8C4, symSize: 0x50 }
  - { offsetInCU: 0x73F10, offset: 0x73F10, size: 0x8, addend: 0x0, symName: __ZN3mlc3ffi8DictBase3ffiINS0_8UDictObjEE7GetItemEPS3_NS0_3AnyE, symObjAddr: 0x1974, symBinAddr: 0x6D8C, symSize: 0xAD4 }
  - { offsetInCU: 0x760FD, offset: 0x760FD, size: 0x8, addend: 0x0, symName: __ZNK3mlc3ffi8DictBase6LookupINS0_7AnyHashENS0_8AnyEqualEEENS0_13DictBlockIterERK6MLCAny, symObjAddr: 0x1906C, symBinAddr: 0x1E484, symSize: 0x168 }
  - { offsetInCU: 0x762E1, offset: 0x762E1, size: 0x8, addend: 0x0, symName: _MLCVTableGet, symObjAddr: 0x906C, symBinAddr: 0xE484, symSize: 0x38C }
  - { offsetInCU: 0x76994, offset: 0x76994, size: 0x8, addend: 0x0, symName: _MLCTypeIndex2Info, symObjAddr: 0x7E04, symBinAddr: 0xD21C, symSize: 0x350 }
  - { offsetInCU: 0x76F21, offset: 0x76F21, size: 0x8, addend: 0x0, symName: __ZN3mlc3ffi9PODTraitsIPKcvE13AnyCopyToTypeEPK6MLCAny, symObjAddr: 0xE128, symBinAddr: 0x13540, symSize: 0x60 }
  - { offsetInCU: 0x76F81, offset: 0x76F81, size: 0x8, addend: 0x0, symName: __ZNK3mlc3ffi8ErrorObj10AppendWithE12MLCByteArray, symObjAddr: 0xDEB0, symBinAddr: 0x132C8, symSize: 0xFC }
  - { offsetInCU: 0x771D1, offset: 0x771D1, size: 0x8, addend: 0x0, symName: __ZN3mlc3ffi3RefINS0_6StrObjEED1Ev, symObjAddr: 0x7D40, symBinAddr: 0xD158, symSize: 0x50 }
  - { offsetInCU: 0x7729E, offset: 0x7729E, size: 0x8, addend: 0x0, symName: __ZN3mlc3ffi8Type2StrIPNS0_6StrObjEE3RunEv, symObjAddr: 0xDFC8, symBinAddr: 0x133E0, symSize: 0x9C }
  - { offsetInCU: 0x777FD, offset: 0x777FD, size: 0x8, addend: 0x0, symName: __ZN3mlc3ffi3RefINS0_8ErrorObjEED1Ev, symObjAddr: 0xB210, symBinAddr: 0x10628, symSize: 0x50 }
  - { offsetInCU: 0x778C1, offset: 0x778C1, size: 0x8, addend: 0x0, symName: __ZN3mlc3ffi8Type2StrIPNS0_8ErrorObjEE3RunEv, symObjAddr: 0xE088, symBinAddr: 0x134A0, symSize: 0xA0 }
  - { offsetInCU: 0x77F70, offset: 0x77F70, size: 0x8, addend: 0x0, symName: __ZN3mlc3ffi8DictBase3ffiINS0_8UDictObjEE6GetKeyEPS3_x, symObjAddr: 0x2778, symBinAddr: 0x7B90, symSize: 0x44 }
  - { offsetInCU: 0x77FA5, offset: 0x77FA5, size: 0x8, addend: 0x0, symName: __ZN3mlc3ffi8DictBase3ffiINS0_8UDictObjEE6GetKeyEPS3_x, symObjAddr: 0x2778, symBinAddr: 0x7B90, symSize: 0x44 }
  - { offsetInCU: 0x77FBA, offset: 0x77FBA, size: 0x8, addend: 0x0, symName: __ZN3mlc3ffi8DictBase3ffiINS0_8UDictObjEE6GetKeyEPS3_x, symObjAddr: 0x2778, symBinAddr: 0x7B90, symSize: 0x44 }
  - { offsetInCU: 0x7807B, offset: 0x7807B, size: 0x8, addend: 0x0, symName: __ZN3mlc3ffi8DictBase3ffiINS0_8UDictObjEE8GetValueEPS3_x, symObjAddr: 0x27BC, symBinAddr: 0x7BD4, symSize: 0x44 }
  - { offsetInCU: 0x780B0, offset: 0x780B0, size: 0x8, addend: 0x0, symName: __ZN3mlc3ffi8DictBase3ffiINS0_8UDictObjEE8GetValueEPS3_x, symObjAddr: 0x27BC, symBinAddr: 0x7BD4, symSize: 0x44 }
  - { offsetInCU: 0x780C5, offset: 0x780C5, size: 0x8, addend: 0x0, symName: __ZN3mlc3ffi8DictBase3ffiINS0_8UDictObjEE8GetValueEPS3_x, symObjAddr: 0x27BC, symBinAddr: 0x7BD4, symSize: 0x44 }
  - { offsetInCU: 0x782F0, offset: 0x782F0, size: 0x8, addend: 0x0, symName: __ZN3mlc3ffi8DictBase3ffiINS0_8UDictObjEE7AdvanceEPS3_x, symObjAddr: 0x2B30, symBinAddr: 0x7F48, symSize: 0x4C }
  - { offsetInCU: 0x7833A, offset: 0x7833A, size: 0x8, addend: 0x0, symName: __ZN3mlc3ffi8DictBase3ffiINS0_8UDictObjEE7AdvanceEPS3_x, symObjAddr: 0x2B30, symBinAddr: 0x7F48, symSize: 0x4C }
  - { offsetInCU: 0x78358, offset: 0x78358, size: 0x8, addend: 0x0, symName: __ZN3mlc3ffi8DictBase3ffiINS0_8UDictObjEE7AdvanceEPS3_x, symObjAddr: 0x2B30, symBinAddr: 0x7F48, symSize: 0x4C }
  - { offsetInCU: 0x783BF, offset: 0x783BF, size: 0x8, addend: 0x0, symName: __ZN3mlc3ffi7details16ReflectionHelper6MethodIMNS0_6StrObjEKFNSt3__112basic_stringIcNS5_11char_traitsIcEENS5_9allocatorIcEEEEvEEERS2_PKcOT_, symObjAddr: 0x2B7C, symBinAddr: 0x7F94, symSize: 0x334 }
  - { offsetInCU: 0x79108, offset: 0x79108, size: 0x8, addend: 0x0, symName: __ZNK3mlc3ffi6StrObj7__str__Ev, symObjAddr: 0x2EB0, symBinAddr: 0x82C8, symSize: 0x1A4 }
  - { offsetInCU: 0x794B9, offset: 0x794B9, size: 0x8, addend: 0x0, symName: __ZN3mlc3ffi7details16ReflectionHelper6MethodIRFNSt3__112basic_stringIcNS4_11char_traitsIcEENS4_9allocatorIcEEEENS0_7AnyViewEEEERS2_PKcOT_, symObjAddr: 0x3054, symBinAddr: 0x846C, symSize: 0x330 }
  - { offsetInCU: 0x7A1D2, offset: 0x7A1D2, size: 0x8, addend: 0x0, symName: __ZN3mlc3ffi7details16ReflectionHelper16DefaultStrMethodENS0_7AnyViewE, symObjAddr: 0x3384, symBinAddr: 0x879C, symSize: 0x1B8 }
  - { offsetInCU: 0x7A587, offset: 0x7A587, size: 0x8, addend: 0x0, symName: __ZN3mlc3ffi7details16ReflectionHelper6MethodIMNS0_8UListObjEKFNSt3__112basic_stringIcNS5_11char_traitsIcEENS5_9allocatorIcEEEEvEEERS2_PKcOT_, symObjAddr: 0x353C, symBinAddr: 0x8954, symSize: 0x334 }
  - { offsetInCU: 0x7B198, offset: 0x7B198, size: 0x8, addend: 0x0, symName: __ZN3mlc3ffi7details16ReflectionHelper6MethodIPFviPKNS0_7AnyViewEPNS0_3AnyEEEERS2_PKcOT_, symObjAddr: 0x4FA8, symBinAddr: 0xA3C0, symSize: 0x330 }
  - { offsetInCU: 0x7BDA3, offset: 0x7BDA3, size: 0x8, addend: 0x0, symName: __ZN3mlc3ffi7details16ReflectionHelper6MethodIPFNS0_3AnyEPNS0_8UListObjExEEERS2_PKcOT_, symObjAddr: 0x5588, symBinAddr: 0xA9A0, symSize: 0x330 }
  - { offsetInCU: 0x7CB33, offset: 0x7CB33, size: 0x8, addend: 0x0, symName: __ZNK3mlc3ffi8UListObj7__str__Ev, symObjAddr: 0x3870, symBinAddr: 0x8C88, symSize: 0x1738 }
  - { offsetInCU: 0x81735, offset: 0x81735, size: 0x8, addend: 0x0, symName: __ZN3mlc3ffi8ListBase3ffiINS0_8UListObjEE3NewEiPKNS0_7AnyViewEPNS0_3AnyE, symObjAddr: 0x52D8, symBinAddr: 0xA6F0, symSize: 0x2B0 }
  - { offsetInCU: 0x8204F, offset: 0x8204F, size: 0x8, addend: 0x0, symName: __ZNSt3__16vectorIN3mlc3ffi3AnyENS_9allocatorIS3_EEEC2IPKNS2_7AnyViewELi0EEET_SB_, symObjAddr: 0x1CEDC, symBinAddr: 0x222F4, symSize: 0x120 }
  - { offsetInCU: 0x824ED, offset: 0x824ED, size: 0x8, addend: 0x0, symName: __ZN3mlc3ffi8ListBase14ListRangeCheckExxx, symObjAddr: 0x1D1D4, symBinAddr: 0x225EC, symSize: 0x1EC }
  - { offsetInCU: 0x827BB, offset: 0x827BB, size: 0x8, addend: 0x0, symName: __ZNSt3__16vectorIN3mlc3ffi3AnyENS_9allocatorIS3_EEED1B8ue170006Ev, symObjAddr: 0xB984, symBinAddr: 0x10D9C, symSize: 0xA0 }
  - { offsetInCU: 0x829C4, offset: 0x829C4, size: 0x8, addend: 0x0, symName: __ZN3mlc3ffi3RefINS0_8UListObjEED1Ev, symObjAddr: 0x1CDF4, symBinAddr: 0x2220C, symSize: 0x50 }
  - { offsetInCU: 0x82BD1, offset: 0x82BD1, size: 0x8, addend: 0x0, symName: __ZN3mlc3ffi8ListBase3ffiINS0_8UListObjEE2AtEPS3_x, symObjAddr: 0x58B8, symBinAddr: 0xACD0, symSize: 0x30 }
  - { offsetInCU: 0x82C02, offset: 0x82C02, size: 0x8, addend: 0x0, symName: __ZN3mlc3ffi8ListBase3ffiINS0_8UListObjEE2AtEPS3_x, symObjAddr: 0x58B8, symBinAddr: 0xACD0, symSize: 0x30 }
  - { offsetInCU: 0x82C24, offset: 0x82C24, size: 0x8, addend: 0x0, symName: __ZN3mlc3ffi8ListBase3ffiINS0_8UListObjEE2AtEPS3_x, symObjAddr: 0x58B8, symBinAddr: 0xACD0, symSize: 0x30 }
  - { offsetInCU: 0x82CBC, offset: 0x82CBC, size: 0x8, addend: 0x0, symName: __ZN3mlc3ffi7details16ReflectionHelper6MethodIPFNSt3__112basic_stringIcNS4_11char_traitsIcEENS4_9allocatorIcEEEEPvEEERS2_PKcOT_, symObjAddr: 0x58E8, symBinAddr: 0xAD00, symSize: 0x330 }
  - { offsetInCU: 0x839D4, offset: 0x839D4, size: 0x8, addend: 0x0, symName: __ZN3mlc3ffi9PODTraitsIPvvE7__str__ES2_, symObjAddr: 0x5C18, symBinAddr: 0xB030, symSize: 0x180 }
  - { offsetInCU: 0x83E65, offset: 0x83E65, size: 0x8, addend: 0x0, symName: __ZN3mlc3ffi7details16ReflectionHelper6MethodIPFNSt3__112basic_stringIcNS4_11char_traitsIcEENS4_9allocatorIcEEEExEEERS2_PKcOT_, symObjAddr: 0x5D98, symBinAddr: 0xB1B0, symSize: 0x330 }
  - { offsetInCU: 0x84B7D, offset: 0x84B7D, size: 0x8, addend: 0x0, symName: __ZN3mlc3ffi9PODTraitsIxvE7__str__Ex, symObjAddr: 0x60C8, symBinAddr: 0xB4E0, symSize: 0x4 }
  - { offsetInCU: 0x84BA1, offset: 0x84BA1, size: 0x8, addend: 0x0, symName: __ZN3mlc3ffi9PODTraitsIxvE7__str__Ex, symObjAddr: 0x60C8, symBinAddr: 0xB4E0, symSize: 0x4 }
  - { offsetInCU: 0x84BC0, offset: 0x84BC0, size: 0x8, addend: 0x0, symName: __ZN3mlc3ffi7details16ReflectionHelper6MethodIPFNSt3__112basic_stringIcNS4_11char_traitsIcEENS4_9allocatorIcEEEEdEEERS2_PKcOT_, symObjAddr: 0x60CC, symBinAddr: 0xB4E4, symSize: 0x330 }
  - { offsetInCU: 0x858D8, offset: 0x858D8, size: 0x8, addend: 0x0, symName: __ZN3mlc3ffi9PODTraitsIdvE7__str__Ed, symObjAddr: 0x63FC, symBinAddr: 0xB814, symSize: 0x4 }
  - { offsetInCU: 0x858FD, offset: 0x858FD, size: 0x8, addend: 0x0, symName: __ZN3mlc3ffi9PODTraitsIdvE7__str__Ed, symObjAddr: 0x63FC, symBinAddr: 0xB814, symSize: 0x4 }
  - { offsetInCU: 0x85923, offset: 0x85923, size: 0x8, addend: 0x0, symName: __ZN3mlc3ffi7details16ReflectionHelper6MethodIPFNSt3__112basic_stringIcNS4_11char_traitsIcEENS4_9allocatorIcEEEE8DLDeviceEEERS2_PKcOT_, symObjAddr: 0x6400, symBinAddr: 0xB818, symSize: 0x330 }
  - { offsetInCU: 0x8663B, offset: 0x8663B, size: 0x8, addend: 0x0, symName: __ZN3mlc3ffi9PODTraitsI8DLDevicevE7__str__ES2_, symObjAddr: 0x6730, symBinAddr: 0xBB48, symSize: 0x1A8 }
  - { offsetInCU: 0x869AC, offset: 0x869AC, size: 0x8, addend: 0x0, symName: __ZN3mlc3ffi7details16ReflectionHelper6MethodIPFNSt3__112basic_stringIcNS4_11char_traitsIcEENS4_9allocatorIcEEEE10DLDataTypeEEERS2_PKcOT_, symObjAddr: 0x68D8, symBinAddr: 0xBCF0, symSize: 0x330 }
  - { offsetInCU: 0x876C4, offset: 0x876C4, size: 0x8, addend: 0x0, symName: __ZN3mlc3ffi9PODTraitsI10DLDataTypevE7__str__ES2_, symObjAddr: 0x6C08, symBinAddr: 0xC020, symSize: 0x240 }
  - { offsetInCU: 0x87B69, offset: 0x87B69, size: 0x8, addend: 0x0, symName: __ZN3mlc3ffi7details16ReflectionHelper6MethodIPFNSt3__112basic_stringIcNS4_11char_traitsIcEENS4_9allocatorIcEEEEPKcEEERS2_SC_OT_, symObjAddr: 0x6E48, symBinAddr: 0xC260, symSize: 0x330 }
  - { offsetInCU: 0x8890F, offset: 0x8890F, size: 0x8, addend: 0x0, symName: __ZN3mlc3ffi9PODTraitsIPKcvE7__str__ES3_, symObjAddr: 0x7178, symBinAddr: 0xC590, symSize: 0x158 }
  - { offsetInCU: 0x89174, offset: 0x89174, size: 0x8, addend: 0x0, symName: __ZN3mlc3ffi8registry9TypeTable3NewEv, symObjAddr: 0x7340, symBinAddr: 0xC758, symSize: 0x158 }
  - { offsetInCU: 0x8A4A2, offset: 0x8A4A2, size: 0x8, addend: 0x0, symName: __ZNSt3__16vectorINS_10unique_ptrIN3mlc3ffi8registry15TypeInfoWrapperENS_14default_deleteIS5_EEEENS_9allocatorIS8_EEE8__appendEm, symObjAddr: 0xECF0, symBinAddr: 0x14108, symSize: 0x168 }
  - { offsetInCU: 0x8AB7E, offset: 0x8AB7E, size: 0x8, addend: 0x0, symName: __ZNSt3__112__hash_tableINS_17__hash_value_typeINS_12basic_stringIcNS_11char_traitsIcEENS_9allocatorIcEEEEP11MLCTypeInfoEENS_22__unordered_map_hasherIS7_SA_NS_4hashIS7_EENS_8equal_toIS7_EELb1EEENS_21__unordered_map_equalIS7_SA_SF_SD_Lb1EEENS5_ISA_EEE16__reserve_uniqueB8ue170006Em, symObjAddr: 0xFEB0, symBinAddr: 0x152C8, symSize: 0xE8 }
  - { offsetInCU: 0x8ACA1, offset: 0x8ACA1, size: 0x8, addend: 0x0, symName: __ZN3mlc3ffi8registry9TypeTable12TypeRegisterEiiPKc, symObjAddr: 0x78B8, symBinAddr: 0xCCD0, symSize: 0x488 }
  - { offsetInCU: 0x8BF0C, offset: 0x8BF0C, size: 0x8, addend: 0x0, symName: __ZN3mlc3ffi3AnyD1Ev, symObjAddr: 0x7498, symBinAddr: 0xC8B0, symSize: 0x5C }
  - { offsetInCU: 0x8BFC8, offset: 0x8BFC8, size: 0x8, addend: 0x0, symName: _MLCGetLastError, symObjAddr: 0x74F4, symBinAddr: 0xC90C, symSize: 0x98 }
  - { offsetInCU: 0x8C24E, offset: 0x8C24E, size: 0x8, addend: 0x0, symName: __ZN3mlc3ffi9Exception9MoveToAnyEPNS0_3AnyE, symObjAddr: 0x7D9C, symBinAddr: 0xD1B4, symSize: 0x68 }
  - { offsetInCU: 0x8C7F2, offset: 0x8C7F2, size: 0x8, addend: 0x0, symName: __ZNSt3__112__hash_tableINS_17__hash_value_typeINS_12basic_stringIcNS_11char_traitsIcEENS_9allocatorIcEEEEP11MLCTypeInfoEENS_22__unordered_map_hasherIS7_SA_NS_4hashIS7_EENS_8equal_toIS7_EELb1EEENS_21__unordered_map_equalIS7_SA_SF_SD_Lb1EEENS5_ISA_EEE4findIS7_EENS_15__hash_iteratorIPNS_11__hash_nodeISA_PvEEEERKT_, symObjAddr: 0x101C0, symBinAddr: 0x155D8, symSize: 0x184 }
  - { offsetInCU: 0x8CAB7, offset: 0x8CAB7, size: 0x8, addend: 0x0, symName: __ZN3mlc3ffi8registry15TypeInfoWrapper5ResetEv, symObjAddr: 0xEEAC, symBinAddr: 0x142C4, symSize: 0x17C }
  - { offsetInCU: 0x8CE21, offset: 0x8CE21, size: 0x8, addend: 0x0, symName: __ZNSt3__112__hash_tableINS_17__hash_value_typeINS_12basic_stringIcNS_11char_traitsIcEENS_9allocatorIcEEEEP11MLCTypeInfoEENS_22__unordered_map_hasherIS7_SA_NS_4hashIS7_EENS_8equal_toIS7_EELb1EEENS_21__unordered_map_equalIS7_SA_SF_SD_Lb1EEENS5_ISA_EEE25__emplace_unique_key_argsIS7_JRKNS_21piecewise_construct_tENS_5tupleIJOS7_EEENSP_IJEEEEEENS_4pairINS_15__hash_iteratorIPNS_11__hash_nodeISA_PvEEEEbEERKT_DpOT0_, symObjAddr: 0x103CC, symBinAddr: 0x157E4, symSize: 0x3A0 }
  - { offsetInCU: 0x8D6C6, offset: 0x8D6C6, size: 0x8, addend: 0x0, symName: __ZN3mlc3ffi8registry9TypeTable8NewArrayIcEEPT_x, symObjAddr: 0x107B8, symBinAddr: 0x15BD0, symSize: 0xCC }
  - { offsetInCU: 0x8D9A7, offset: 0x8D9A7, size: 0x8, addend: 0x0, symName: __ZN3mlc3ffi8registry9TypeTable8NewArrayIiEEPT_x, symObjAddr: 0x100F4, symBinAddr: 0x1550C, symSize: 0xCC }
  - { offsetInCU: 0x8DC88, offset: 0x8DC88, size: 0x8, addend: 0x0, symName: __ZNKSt3__16vectorINS_10unique_ptrIN3mlc3ffi8registry15TypeInfoWrapperENS_14default_deleteIS5_EEEENS_9allocatorIS8_EEE20__throw_out_of_rangeB8ue170006Ev, symObjAddr: 0x10344, symBinAddr: 0x1575C, symSize: 0x14 }
  - { offsetInCU: 0x8DCB1, offset: 0x8DCB1, size: 0x8, addend: 0x0, symName: __ZNSt3__120__throw_out_of_rangeB8ue170006EPKc, symObjAddr: 0x10358, symBinAddr: 0x15770, symSize: 0x50 }
  - { offsetInCU: 0x8DCBC, offset: 0x8DCBC, size: 0x8, addend: 0x0, symName: __ZNSt3__110unique_ptrIN3mlc3ffi8registry15TypeInfoWrapperENS_14default_deleteIS4_EEED1B8ue170006Ev, symObjAddr: 0xEE6C, symBinAddr: 0x14284, symSize: 0x40 }
  - { offsetInCU: 0x8DDF2, offset: 0x8DDF2, size: 0x8, addend: 0x0, symName: _MLCTypeKey2Info, symObjAddr: 0x8154, symBinAddr: 0xD56C, symSize: 0x31C }
  - { offsetInCU: 0x8E31D, offset: 0x8E31D, size: 0x8, addend: 0x0, symName: __ZN3mlc3ffi8registry9TypeTable11GetTypeInfoEPKc, symObjAddr: 0x8470, symBinAddr: 0xD888, symSize: 0xF8 }
  - { offsetInCU: 0x8E956, offset: 0x8E956, size: 0x8, addend: 0x0, symName: __ZN3mlc3ffi8registry9TypeTable17TypeDefReflectionEixP12MLCTypeFieldxP13MLCTypeMethod, symObjAddr: 0x88A0, symBinAddr: 0xDCB8, symSize: 0x11C }
  - { offsetInCU: 0x8EB30, offset: 0x8EB30, size: 0x8, addend: 0x0, symName: __ZN3mlc3ffi8registry15TypeInfoWrapper9SetFieldsExP12MLCTypeField, symObjAddr: 0x10ED4, symBinAddr: 0x162EC, symSize: 0x178 }
  - { offsetInCU: 0x8EE03, offset: 0x8EE03, size: 0x8, addend: 0x0, symName: __ZN3mlc3ffi8registry15TypeInfoWrapper10SetMethodsExP13MLCTypeMethod, symObjAddr: 0x1104C, symBinAddr: 0x16464, symSize: 0x2B0 }
  - { offsetInCU: 0x8F7FC, offset: 0x8F7FC, size: 0x8, addend: 0x0, symName: _MLCVTableSet, symObjAddr: 0x89BC, symBinAddr: 0xDDD4, symSize: 0x320 }
  - { offsetInCU: 0x8FD42, offset: 0x8FD42, size: 0x8, addend: 0x0, symName: __ZN3mlc3ffi8registry9TypeTable9SetVTableEiPKcPNS0_7AnyViewE, symObjAddr: 0x8CDC, symBinAddr: 0xE0F4, symSize: 0x390 }
  - { offsetInCU: 0x90B90, offset: 0x90B90, size: 0x8, addend: 0x0, symName: __ZNSt3__112__hash_tableINS_17__hash_value_typeINS_12basic_stringIcNS_11char_traitsIcEENS_9allocatorIcEEEENS_13unordered_mapIiPN3mlc3ffi7FuncObjENS_4hashIiEENS_8equal_toIiEENS5_INS_4pairIKiSC_EEEEEEEENS_22__unordered_map_hasherIS7_SM_NSD_IS7_EENSF_IS7_EELb1EEENS_21__unordered_map_equalIS7_SM_SP_SO_Lb1EEENS5_ISM_EEE25__emplace_unique_key_argsIS7_JRKNS_21piecewise_construct_tENS_5tupleIJOS7_EEENSZ_IJEEEEEENSH_INS_15__hash_iteratorIPNS_11__hash_nodeISM_PvEEEEbEERKT_DpOT0_, symObjAddr: 0x12908, symBinAddr: 0x17D20, symSize: 0x3B0 }
  - { offsetInCU: 0x915B2, offset: 0x915B2, size: 0x8, addend: 0x0, symName: __ZNSt3__112__hash_tableINS_17__hash_value_typeIiPN3mlc3ffi7FuncObjEEENS_22__unordered_map_hasherIiS6_NS_4hashIiEENS_8equal_toIiEELb1EEENS_21__unordered_map_equalIiS6_SB_S9_Lb1EEENS_9allocatorIS6_EEE25__emplace_unique_key_argsIiJRKNS_21piecewise_construct_tENS_5tupleIJRKiEEENSM_IJODnEEEEEENS_4pairINS_15__hash_iteratorIPNS_11__hash_nodeIS6_PvEEEEbEERKT_DpOT0_, symObjAddr: 0x12E90, symBinAddr: 0x182A8, symSize: 0x2C4 }
  - { offsetInCU: 0x91C91, offset: 0x91C91, size: 0x8, addend: 0x0, symName: __ZN3mlc3ffi8registry9TypeTable9NewObjPtrINS0_7FuncObjEEEvPPT_S6_, symObjAddr: 0x12710, symBinAddr: 0x17B28, symSize: 0xFC }
  - { offsetInCU: 0x91FC6, offset: 0x91FC6, size: 0x8, addend: 0x0, symName: __ZN3mlc3ffi8Type2StrIPNS0_7FuncObjEE3RunEv, symObjAddr: 0x140A4, symBinAddr: 0x194BC, symSize: 0xA0 }
  - { offsetInCU: 0x92627, offset: 0x92627, size: 0x8, addend: 0x0, symName: __ZN3mlc3ffi8registry9TypeTable9GetVTableEiPKc, symObjAddr: 0x93F8, symBinAddr: 0xE810, symSize: 0x1B8 }
  - { offsetInCU: 0x92F74, offset: 0x92F74, size: 0x8, addend: 0x0, symName: __Z25MLCDynTypeTypeTableCreatePPv, symObjAddr: 0x95B0, symBinAddr: 0xE9C8, symSize: 0x25C }
  - { offsetInCU: 0x933DF, offset: 0x933DF, size: 0x8, addend: 0x0, symName: __Z25MLCDynTypeTypeTableCreatePPv.cold.1, symObjAddr: 0x247EC, symBinAddr: 0x50088, symSize: 0x68 }
  - { offsetInCU: 0x93478, offset: 0x93478, size: 0x8, addend: 0x0, symName: __Z26MLCDynTypeTypeTableDestroyPv, symObjAddr: 0x980C, symBinAddr: 0xEC24, symSize: 0x20 }
  - { offsetInCU: 0x934CF, offset: 0x934CF, size: 0x8, addend: 0x0, symName: __ZN3mlc3ffi8registry9TypeTableD2Ev, symObjAddr: 0x14144, symBinAddr: 0x1955C, symSize: 0x19C }
  - { offsetInCU: 0x9472A, offset: 0x9472A, size: 0x8, addend: 0x0, symName: _MLCAnyIncRef, symObjAddr: 0x982C, symBinAddr: 0xEC44, symSize: 0x28 }
  - { offsetInCU: 0x94788, offset: 0x94788, size: 0x8, addend: 0x0, symName: _MLCAnyDecRef, symObjAddr: 0x9854, symBinAddr: 0xEC6C, symSize: 0x280 }
  - { offsetInCU: 0x94C19, offset: 0x94C19, size: 0x8, addend: 0x0, symName: _MLCAnyDecRef.cold.1, symObjAddr: 0x24854, symBinAddr: 0x500F0, symSize: 0x68 }
  - { offsetInCU: 0x94CB8, offset: 0x94CB8, size: 0x8, addend: 0x0, symName: _MLCAnyInplaceViewToOwned, symObjAddr: 0x9AFC, symBinAddr: 0xEF14, symSize: 0x2E4 }
  - { offsetInCU: 0x952C0, offset: 0x952C0, size: 0x8, addend: 0x0, symName: _MLCAnyInplaceViewToOwned.cold.1, symObjAddr: 0x248BC, symBinAddr: 0x50158, symSize: 0x68 }
  - { offsetInCU: 0x9533E, offset: 0x9533E, size: 0x8, addend: 0x0, symName: _MLCFuncSetGlobal, symObjAddr: 0x9DE0, symBinAddr: 0xF1F8, symSize: 0x32C }
  - { offsetInCU: 0x95880, offset: 0x95880, size: 0x8, addend: 0x0, symName: __ZN3mlc3ffi8registry9TypeTable7SetFuncEPKcNS0_7AnyViewEb, symObjAddr: 0xA10C, symBinAddr: 0xF524, symSize: 0x3E8 }
  - { offsetInCU: 0x9663F, offset: 0x9663F, size: 0x8, addend: 0x0, symName: __ZNSt3__112__hash_tableINS_17__hash_value_typeINS_12basic_stringIcNS_11char_traitsIcEENS_9allocatorIcEEEEPN3mlc3ffi7FuncObjEEENS_22__unordered_map_hasherIS7_SC_NS_4hashIS7_EENS_8equal_toIS7_EELb1EEENS_21__unordered_map_equalIS7_SC_SH_SF_Lb1EEENS5_ISC_EEE25__emplace_unique_key_argsIS7_JRKNS_21piecewise_construct_tENS_5tupleIJOS7_EEENSR_IJODnEEEEEENS_4pairINS_15__hash_iteratorIPNS_11__hash_nodeISC_PvEEEEbEERKT_DpOT0_, symObjAddr: 0x143FC, symBinAddr: 0x19814, symSize: 0x3A0 }
  - { offsetInCU: 0x96EE4, offset: 0x96EE4, size: 0x8, addend: 0x0, symName: _MLCFuncGetGlobal, symObjAddr: 0xA4F4, symBinAddr: 0xF90C, symSize: 0x384 }
  - { offsetInCU: 0x97582, offset: 0x97582, size: 0x8, addend: 0x0, symName: __ZN3mlc3ffi8registry9TypeTable7GetFuncEPKc, symObjAddr: 0xA878, symBinAddr: 0xFC90, symSize: 0xFC }
  - { offsetInCU: 0x97BE3, offset: 0x97BE3, size: 0x8, addend: 0x0, symName: __ZNSt3__112__hash_tableINS_17__hash_value_typeINS_12basic_stringIcNS_11char_traitsIcEENS_9allocatorIcEEEEPN3mlc3ffi7FuncObjEEENS_22__unordered_map_hasherIS7_SC_NS_4hashIS7_EENS_8equal_toIS7_EELb1EEENS_21__unordered_map_equalIS7_SC_SH_SF_Lb1EEENS5_ISC_EEE4findIS7_EENS_15__hash_iteratorIPNS_11__hash_nodeISC_PvEEEERKT_, symObjAddr: 0x14944, symBinAddr: 0x19D5C, symSize: 0x184 }
  - { offsetInCU: 0x97F50, offset: 0x97F50, size: 0x8, addend: 0x0, symName: _MLCFuncSafeCall, symObjAddr: 0xA974, symBinAddr: 0xFD8C, symSize: 0xF0 }
  - { offsetInCU: 0x980D0, offset: 0x980D0, size: 0x8, addend: 0x0, symName: _MLCFuncCreate, symObjAddr: 0xAA98, symBinAddr: 0xFEB0, symSize: 0x2DC }
  - { offsetInCU: 0x9875C, offset: 0x9875C, size: 0x8, addend: 0x0, symName: _MLCFuncCreate.cold.1, symObjAddr: 0x24924, symBinAddr: 0x501C0, symSize: 0x68 }
  - { offsetInCU: 0x98CF8, offset: 0x98CF8, size: 0x8, addend: 0x0, symName: __ZZN3mlc3ffi7FuncObj11FromForeignEPvPFvS2_EPFiPKviPK6MLCAnyPS7_EENUliS9_SA_E0_D1Ev, symObjAddr: 0x14AC8, symBinAddr: 0x19EE0, symSize: 0x50 }
  - { offsetInCU: 0x98F69, offset: 0x98F69, size: 0x8, addend: 0x0, symName: _MLCErrorCreate, symObjAddr: 0xAF08, symBinAddr: 0x10320, symSize: 0x308 }
  - { offsetInCU: 0x99641, offset: 0x99641, size: 0x8, addend: 0x0, symName: _MLCErrorCreate.cold.1, symObjAddr: 0x2498C, symBinAddr: 0x50228, symSize: 0x68 }
  - { offsetInCU: 0x9978B, offset: 0x9978B, size: 0x8, addend: 0x0, symName: __ZNK3mlc3ffi8ErrorObj7GetInfoEPNSt3__16vectorIPKcNS2_9allocatorIS5_EEEE, symObjAddr: 0xB870, symBinAddr: 0x10C88, symSize: 0x114 }
  - { offsetInCU: 0x99C84, offset: 0x99C84, size: 0x8, addend: 0x0, symName: __ZNSt3__16vectorIN3mlc3ffi3AnyENS_9allocatorIS3_EEED1B8ue170006Ev, symObjAddr: 0xB984, symBinAddr: 0x10D9C, symSize: 0xA0 }
  - { offsetInCU: 0x99D65, offset: 0x99D65, size: 0x8, addend: 0x0, symName: __ZNSt3__16vectorIPKcNS_9allocatorIS2_EEED1B8ue170006Ev, symObjAddr: 0xB840, symBinAddr: 0x10C58, symSize: 0x30 }
  - { offsetInCU: 0x9A20D, offset: 0x9A20D, size: 0x8, addend: 0x0, symName: __ZNKSt3__16vectorIPKcNS_9allocatorIS2_EEE20__throw_length_errorB8ue170006Ev, symObjAddr: 0x159EC, symBinAddr: 0x1AE04, symSize: 0x14 }
  - { offsetInCU: 0x9A236, offset: 0x9A236, size: 0x8, addend: 0x0, symName: __ZNSt3__112__hash_tableINS_17__hash_value_typeINS_12basic_stringIcNS_11char_traitsIcEENS_9allocatorIcEEEE12DLDeviceTypeEENS_22__unordered_map_hasherIS7_S9_NS_4hashIS7_EENS_8equal_toIS7_EELb1EEENS_21__unordered_map_equalIS7_S9_SE_SC_Lb1EEENS5_IS9_EEE25__emplace_unique_key_argsIS7_JRKNS_4pairIKS7_S8_EEEEENSL_INS_15__hash_iteratorIPNS_11__hash_nodeIS9_PvEEEEbEERKT_DpOT0_, symObjAddr: 0x15A00, symBinAddr: 0x1AE18, symSize: 0x380 }
  - { offsetInCU: 0x9A241, offset: 0x9A241, size: 0x8, addend: 0x0, symName: __ZNSt12length_errorC1B8ue170006EPKc, symObjAddr: 0xBA88, symBinAddr: 0x10EA0, symSize: 0x24 }
  - { offsetInCU: 0x9A2C8, offset: 0x9A2C8, size: 0x8, addend: 0x0, symName: __ZNSt3__119basic_ostringstreamIcNS_11char_traitsIcEENS_9allocatorIcEEED0Ev, symObjAddr: 0xBB60, symBinAddr: 0x10F78, symSize: 0x8C }
  - { offsetInCU: 0x9A475, offset: 0x9A475, size: 0x8, addend: 0x0, symName: __ZTv0_n24_NSt3__119basic_ostringstreamIcNS_11char_traitsIcEENS_9allocatorIcEEED1Ev, symObjAddr: 0xBBEC, symBinAddr: 0x11004, symSize: 0x8C }
  - { offsetInCU: 0x9A635, offset: 0x9A635, size: 0x8, addend: 0x0, symName: __ZTv0_n24_NSt3__119basic_ostringstreamIcNS_11char_traitsIcEENS_9allocatorIcEEED0Ev, symObjAddr: 0xBC78, symBinAddr: 0x11090, symSize: 0x94 }
  - { offsetInCU: 0x9A7F5, offset: 0x9A7F5, size: 0x8, addend: 0x0, symName: __ZNSt3__115basic_stringbufIcNS_11char_traitsIcEENS_9allocatorIcEEED1Ev, symObjAddr: 0xBD0C, symBinAddr: 0x11124, symSize: 0x40 }
  - { offsetInCU: 0x9A95E, offset: 0x9A95E, size: 0x8, addend: 0x0, symName: __ZNSt3__115basic_stringbufIcNS_11char_traitsIcEENS_9allocatorIcEEED0Ev, symObjAddr: 0xBD4C, symBinAddr: 0x11164, symSize: 0x44 }
  - { offsetInCU: 0x9ABB8, offset: 0x9ABB8, size: 0x8, addend: 0x0, symName: __ZNSt3__115basic_stringbufIcNS_11char_traitsIcEENS_9allocatorIcEEE7seekoffExNS_8ios_base7seekdirEj, symObjAddr: 0xBD90, symBinAddr: 0x111A8, symSize: 0x100 }
  - { offsetInCU: 0x9ADBA, offset: 0x9ADBA, size: 0x8, addend: 0x0, symName: __ZNSt3__115basic_stringbufIcNS_11char_traitsIcEENS_9allocatorIcEEE7seekposENS_4fposI11__mbstate_tEEj, symObjAddr: 0xBE90, symBinAddr: 0x112A8, symSize: 0x18 }
  - { offsetInCU: 0x9AE5A, offset: 0x9AE5A, size: 0x8, addend: 0x0, symName: __ZNSt3__115basic_stringbufIcNS_11char_traitsIcEENS_9allocatorIcEEE9underflowEv, symObjAddr: 0xBEA8, symBinAddr: 0x112C0, symSize: 0x50 }
  - { offsetInCU: 0x9AEFE, offset: 0x9AEFE, size: 0x8, addend: 0x0, symName: __ZNSt3__115basic_stringbufIcNS_11char_traitsIcEENS_9allocatorIcEEE9pbackfailEi, symObjAddr: 0xBEF8, symBinAddr: 0x11310, symSize: 0x6C }
  - { offsetInCU: 0x9B0CE, offset: 0x9B0CE, size: 0x8, addend: 0x0, symName: __ZNSt3__115basic_stringbufIcNS_11char_traitsIcEENS_9allocatorIcEEE8overflowEi, symObjAddr: 0xBF64, symBinAddr: 0x1137C, symSize: 0x164 }
  - { offsetInCU: 0x9B6F9, offset: 0x9B6F9, size: 0x8, addend: 0x0, symName: __ZN3mlc3ffi7details12ErrorBuilderD2Ev, symObjAddr: 0xDA04, symBinAddr: 0x12E1C, symSize: 0xDC }
  - { offsetInCU: 0x9BBFD, offset: 0x9BBFD, size: 0x8, addend: 0x0, symName: __ZN3mlc3ffi9ExceptionD1Ev, symObjAddr: 0xDC08, symBinAddr: 0x13020, symSize: 0x5C }
  - { offsetInCU: 0x9BCF9, offset: 0x9BCF9, size: 0x8, addend: 0x0, symName: __ZN3mlc3ffi7details22DefaultObjectAllocatorINS0_8ErrorObjEvE7DeleterEPv, symObjAddr: 0xDC64, symBinAddr: 0x1307C, symSize: 0xC }
  - { offsetInCU: 0x9BD44, offset: 0x9BD44, size: 0x8, addend: 0x0, symName: __ZN3mlc3ffi9ExceptionD0Ev, symObjAddr: 0xDC70, symBinAddr: 0x13088, symSize: 0x60 }
  - { offsetInCU: 0x9BE74, offset: 0x9BE74, size: 0x8, addend: 0x0, symName: __ZNK3mlc3ffi9Exception4whatEv, symObjAddr: 0xDCD0, symBinAddr: 0x130E8, symSize: 0x1C }
  - { offsetInCU: 0x9BE9D, offset: 0x9BE9D, size: 0x8, addend: 0x0, symName: __ZNK3mlc3ffi9Exception4whatEv, symObjAddr: 0xDCD0, symBinAddr: 0x130E8, symSize: 0x1C }
  - { offsetInCU: 0x9BEB9, offset: 0x9BEB9, size: 0x8, addend: 0x0, symName: __ZN3mlc3ffi7FuncObj12SafeCallImplEPKS1_iPKNS0_7AnyViewEPNS0_3AnyE, symObjAddr: 0xDCEC, symBinAddr: 0x13104, symSize: 0x1C4 }
  - { offsetInCU: 0x9C34E, offset: 0x9C34E, size: 0x8, addend: 0x0, symName: __ZN3mlc3ffi7details22DefaultObjectAllocatorINS1_6StrPadEvE7DeleterEPv, symObjAddr: 0xE064, symBinAddr: 0x1347C, symSize: 0xC }
  - { offsetInCU: 0x9C39A, offset: 0x9C39A, size: 0x8, addend: 0x0, symName: __ZN3mlc3ffi18TemporaryTypeErrorD1Ev, symObjAddr: 0xE070, symBinAddr: 0x13488, symSize: 0x4 }
  - { offsetInCU: 0x9C3BC, offset: 0x9C3BC, size: 0x8, addend: 0x0, symName: __ZN3mlc3ffi18TemporaryTypeErrorD1Ev, symObjAddr: 0xE070, symBinAddr: 0x13488, symSize: 0x4 }
  - { offsetInCU: 0x9C3F4, offset: 0x9C3F4, size: 0x8, addend: 0x0, symName: __ZN3mlc3ffi18TemporaryTypeErrorD0Ev, symObjAddr: 0xE074, symBinAddr: 0x1348C, symSize: 0x14 }
  - { offsetInCU: 0x9C7F9, offset: 0x9C7F9, size: 0x8, addend: 0x0, symName: __ZN3mlc3ffi7details8Func2StrINSt3__112basic_stringIcNS3_11char_traitsIcEENS3_9allocatorIcEEEEJNS0_7AnyViewEEE3RunIJLm0EEEES9_NS3_16integer_sequenceImJXspT_EEEE, symObjAddr: 0xE8F8, symBinAddr: 0x13D10, symSize: 0x1C0 }
  - { offsetInCU: 0x9CF82, offset: 0x9CF82, size: 0x8, addend: 0x0, symName: __ZN3mlc3ffi7details22DefaultObjectAllocatorINS1_8FuncImplIPFNSt3__112basic_stringIcNS4_11char_traitsIcEENS4_9allocatorIcEEEENS0_7AnyViewEEEEvE7DeleterEPv, symObjAddr: 0xE8EC, symBinAddr: 0x13D04, symSize: 0xC }
  - { offsetInCU: 0x9CFB8, offset: 0x9CFB8, size: 0x8, addend: 0x0, symName: __ZN3mlc3ffi7details8Func2StrINSt3__112basic_stringIcNS3_11char_traitsIcEENS3_9allocatorIcEEEEJNS0_7AnyViewEEE5ApplyILm0EEEvRNS3_13basic_ostreamIcS6_EE, symObjAddr: 0xEAB8, symBinAddr: 0x13ED0, symSize: 0x94 }
  - { offsetInCU: 0x9D7AF, offset: 0x9D7AF, size: 0x8, addend: 0x0, symName: __ZNKSt3__16vectorIN3mlc3ffi3AnyENS_9allocatorIS3_EEE20__throw_length_errorB8ue170006Ev, symObjAddr: 0xECC8, symBinAddr: 0x140E0, symSize: 0x14 }
  - { offsetInCU: 0x9D7D8, offset: 0x9D7D8, size: 0x8, addend: 0x0, symName: __ZNKSt3__16vectorI13MLCTypeMethodNS_9allocatorIS1_EEE20__throw_length_errorB8ue170006Ev, symObjAddr: 0xECDC, symBinAddr: 0x140F4, symSize: 0x14 }
  - { offsetInCU: 0x9DDA9, offset: 0x9DDA9, size: 0x8, addend: 0x0, symName: __ZNKSt3__16vectorINS_10unique_ptrIN3mlc3ffi8registry15TypeInfoWrapperENS_14default_deleteIS5_EEEENS_9allocatorIS8_EEE20__throw_length_errorB8ue170006Ev, symObjAddr: 0xEE58, symBinAddr: 0x14270, symSize: 0x14 }
  - { offsetInCU: 0x9DDD2, offset: 0x9DDD2, size: 0x8, addend: 0x0, symName: __ZNSt3__110unique_ptrIN3mlc3ffi8registry15TypeInfoWrapperENS_14default_deleteIS4_EEED1B8ue170006Ev, symObjAddr: 0xEE6C, symBinAddr: 0x14284, symSize: 0x40 }
  - { offsetInCU: 0x9DF26, offset: 0x9DF26, size: 0x8, addend: 0x0, symName: __ZNSt3__112__hash_tableINS_17__hash_value_typeIPKvNS_10unique_ptrIvPFvPvEEEEENS_22__unordered_map_hasherIS3_S9_NS_4hashIS3_EENS_8equal_toIS3_EELb1EEENS_21__unordered_map_equalIS3_S9_SE_SC_Lb1EEENS_9allocatorIS9_EEE14__erase_uniqueIS3_EEmRKT_, symObjAddr: 0xF028, symBinAddr: 0x14440, symSize: 0x148 }
  - { offsetInCU: 0x9E318, offset: 0x9E318, size: 0x8, addend: 0x0, symName: __ZNSt3__112__hash_tableINS_17__hash_value_typeIPKvNS_10unique_ptrI6MLCAnyPFvPS5_EEEEENS_22__unordered_map_hasherIS3_SA_NS_4hashIS3_EENS_8equal_toIS3_EELb1EEENS_21__unordered_map_equalIS3_SA_SF_SD_Lb1EEENS_9allocatorISA_EEE14__erase_uniqueIS3_EEmRKT_, symObjAddr: 0xF788, symBinAddr: 0x14BA0, symSize: 0x148 }
  - { offsetInCU: 0x9E9CE, offset: 0x9E9CE, size: 0x8, addend: 0x0, symName: __ZNSt3__112__hash_tableINS_17__hash_value_typeIPKvNS_10unique_ptrIvPFvPvEEEEENS_22__unordered_map_hasherIS3_S9_NS_4hashIS3_EENS_8equal_toIS3_EELb1EEENS_21__unordered_map_equalIS3_S9_SE_SC_Lb1EEENS_9allocatorIS9_EEE6removeENS_21__hash_const_iteratorIPNS_11__hash_nodeIS9_S5_EEEE, symObjAddr: 0xF600, symBinAddr: 0x14A18, symSize: 0x134 }
  - { offsetInCU: 0x9EA48, offset: 0x9EA48, size: 0x8, addend: 0x0, symName: __ZNSt3__112__hash_tableINS_17__hash_value_typeIPKvNS_10unique_ptrIvPFvPvEEEEENS_22__unordered_map_hasherIS3_S9_NS_4hashIS3_EENS_8equal_toIS3_EELb1EEENS_21__unordered_map_equalIS3_S9_SE_SC_Lb1EEENS_9allocatorIS9_EEE6removeENS_21__hash_const_iteratorIPNS_11__hash_nodeIS9_S5_EEEE, symObjAddr: 0xF600, symBinAddr: 0x14A18, symSize: 0x134 }
  - { offsetInCU: 0x9EA64, offset: 0x9EA64, size: 0x8, addend: 0x0, symName: __ZNSt3__112__hash_tableINS_17__hash_value_typeIPKvNS_10unique_ptrIvPFvPvEEEEENS_22__unordered_map_hasherIS3_S9_NS_4hashIS3_EENS_8equal_toIS3_EELb1EEENS_21__unordered_map_equalIS3_S9_SE_SC_Lb1EEENS_9allocatorIS9_EEE6removeENS_21__hash_const_iteratorIPNS_11__hash_nodeIS9_S5_EEEE, symObjAddr: 0xF600, symBinAddr: 0x14A18, symSize: 0x134 }
  - { offsetInCU: 0x9EF0D, offset: 0x9EF0D, size: 0x8, addend: 0x0, symName: __ZNKSt3__121__murmur2_or_cityhashImLm64EEclB8ue170006EPKvm, symObjAddr: 0xF170, symBinAddr: 0x14588, symSize: 0x490 }
  - { offsetInCU: 0x9F980, offset: 0x9F980, size: 0x8, addend: 0x0, symName: __ZNSt3__110unique_ptrINS_11__hash_nodeINS_17__hash_value_typeIPKvNS0_IvPFvPvEEEEES5_EENS_22__hash_node_destructorINS_9allocatorISA_EEEEED1B8ue170006Ev, symObjAddr: 0xF734, symBinAddr: 0x14B4C, symSize: 0x54 }
  - { offsetInCU: 0x9FE57, offset: 0x9FE57, size: 0x8, addend: 0x0, symName: __ZNSt3__112__hash_tableINS_17__hash_value_typeIPKvNS_10unique_ptrI6MLCAnyPFvPS5_EEEEENS_22__unordered_map_hasherIS3_SA_NS_4hashIS3_EENS_8equal_toIS3_EELb1EEENS_21__unordered_map_equalIS3_SA_SF_SD_Lb1EEENS_9allocatorISA_EEE6removeENS_21__hash_const_iteratorIPNS_11__hash_nodeISA_PvEEEE, symObjAddr: 0xF8D0, symBinAddr: 0x14CE8, symSize: 0x134 }
  - { offsetInCU: 0x9FED1, offset: 0x9FED1, size: 0x8, addend: 0x0, symName: __ZNSt3__112__hash_tableINS_17__hash_value_typeIPKvNS_10unique_ptrI6MLCAnyPFvPS5_EEEEENS_22__unordered_map_hasherIS3_SA_NS_4hashIS3_EENS_8equal_toIS3_EELb1EEENS_21__unordered_map_equalIS3_SA_SF_SD_Lb1EEENS_9allocatorISA_EEE6removeENS_21__hash_const_iteratorIPNS_11__hash_nodeISA_PvEEEE, symObjAddr: 0xF8D0, symBinAddr: 0x14CE8, symSize: 0x134 }
  - { offsetInCU: 0x9FEED, offset: 0x9FEED, size: 0x8, addend: 0x0, symName: __ZNSt3__112__hash_tableINS_17__hash_value_typeIPKvNS_10unique_ptrI6MLCAnyPFvPS5_EEEEENS_22__unordered_map_hasherIS3_SA_NS_4hashIS3_EENS_8equal_toIS3_EELb1EEENS_21__unordered_map_equalIS3_SA_SF_SD_Lb1EEENS_9allocatorISA_EEE6removeENS_21__hash_const_iteratorIPNS_11__hash_nodeISA_PvEEEE, symObjAddr: 0xF8D0, symBinAddr: 0x14CE8, symSize: 0x134 }
  - { offsetInCU: 0xA0288, offset: 0xA0288, size: 0x8, addend: 0x0, symName: __ZNSt3__110unique_ptrINS_11__hash_nodeINS_17__hash_value_typeIPKvNS0_I6MLCAnyPFvPS5_EEEEEPvEENS_22__hash_node_destructorINS_9allocatorISC_EEEEED1B8ue170006Ev, symObjAddr: 0xFA04, symBinAddr: 0x14E1C, symSize: 0x54 }
  - { offsetInCU: 0xA05A1, offset: 0xA05A1, size: 0x8, addend: 0x0, symName: __ZNSt3__112__hash_tableINS_17__hash_value_typeIPKvNS_10unique_ptrI6MLCAnyPFvPS5_EEEEENS_22__unordered_map_hasherIS3_SA_NS_4hashIS3_EENS_8equal_toIS3_EELb1EEENS_21__unordered_map_equalIS3_SA_SF_SD_Lb1EEENS_9allocatorISA_EEE20__node_insert_uniqueEPNS_11__hash_nodeISA_PvEE, symObjAddr: 0xFA58, symBinAddr: 0x14E70, symSize: 0x134 }
  - { offsetInCU: 0xA0884, offset: 0xA0884, size: 0x8, addend: 0x0, symName: __ZNSt3__112__hash_tableINS_17__hash_value_typeIPKvNS_10unique_ptrI6MLCAnyPFvPS5_EEEEENS_22__unordered_map_hasherIS3_SA_NS_4hashIS3_EENS_8equal_toIS3_EELb1EEENS_21__unordered_map_equalIS3_SA_SF_SD_Lb1EEENS_9allocatorISA_EEE28__node_insert_unique_prepareB8ue170006EmRSA_, symObjAddr: 0xFB8C, symBinAddr: 0x14FA4, symSize: 0x1C8 }
  - { offsetInCU: 0xA0BA4, offset: 0xA0BA4, size: 0x8, addend: 0x0, symName: __ZNSt3__112__hash_tableINS_17__hash_value_typeIPKvNS_10unique_ptrI6MLCAnyPFvPS5_EEEEENS_22__unordered_map_hasherIS3_SA_NS_4hashIS3_EENS_8equal_toIS3_EELb1EEENS_21__unordered_map_equalIS3_SA_SF_SD_Lb1EEENS_9allocatorISA_EEE11__do_rehashILb1EEEvm, symObjAddr: 0xFD54, symBinAddr: 0x1516C, symSize: 0x15C }
  - { offsetInCU: 0xA1020, offset: 0xA1020, size: 0x8, addend: 0x0, symName: __ZNSt3__112__hash_tableINS_17__hash_value_typeINS_12basic_stringIcNS_11char_traitsIcEENS_9allocatorIcEEEEP11MLCTypeInfoEENS_22__unordered_map_hasherIS7_SA_NS_4hashIS7_EENS_8equal_toIS7_EELb1EEENS_21__unordered_map_equalIS7_SA_SF_SD_Lb1EEENS5_ISA_EEE16__reserve_uniqueB8ue170006Em, symObjAddr: 0xFEB0, symBinAddr: 0x152C8, symSize: 0xE8 }
  - { offsetInCU: 0xA11C8, offset: 0xA11C8, size: 0x8, addend: 0x0, symName: __ZNSt3__112__hash_tableINS_17__hash_value_typeINS_12basic_stringIcNS_11char_traitsIcEENS_9allocatorIcEEEEP11MLCTypeInfoEENS_22__unordered_map_hasherIS7_SA_NS_4hashIS7_EENS_8equal_toIS7_EELb1EEENS_21__unordered_map_equalIS7_SA_SF_SD_Lb1EEENS5_ISA_EEE11__do_rehashILb1EEEvm, symObjAddr: 0xFF98, symBinAddr: 0x153B0, symSize: 0x15C }
  - { offsetInCU: 0xA1644, offset: 0xA1644, size: 0x8, addend: 0x0, symName: __ZN3mlc3ffi8registry9TypeTable8NewArrayIiEEPT_x, symObjAddr: 0x100F4, symBinAddr: 0x1550C, symSize: 0xCC }
  - { offsetInCU: 0xA1995, offset: 0xA1995, size: 0x8, addend: 0x0, symName: __ZNSt3__112__hash_tableINS_17__hash_value_typeIPKvNS_10unique_ptrIvPFvPvEEEEENS_22__unordered_map_hasherIS3_S9_NS_4hashIS3_EENS_8equal_toIS3_EELb1EEENS_21__unordered_map_equalIS3_S9_SE_SC_Lb1EEENS_9allocatorIS9_EEE21__emplace_unique_implIJRPiS8_EEENS_4pairINS_15__hash_iteratorIPNS_11__hash_nodeIS9_S5_EEEEbEEDpOT_, symObjAddr: 0x10DD8, symBinAddr: 0x161F0, symSize: 0xFC }
  - { offsetInCU: 0xA20CA, offset: 0xA20CA, size: 0x8, addend: 0x0, symName: __ZNSt12out_of_rangeC1B8ue170006EPKc, symObjAddr: 0x103A8, symBinAddr: 0x157C0, symSize: 0x24 }
  - { offsetInCU: 0xA259F, offset: 0xA259F, size: 0x8, addend: 0x0, symName: __ZNSt3__110unique_ptrINS_11__hash_nodeINS_17__hash_value_typeINS_12basic_stringIcNS_11char_traitsIcEENS_9allocatorIcEEEEP11MLCTypeInfoEEPvEENS_22__hash_node_destructorINS6_ISD_EEEEED1B8ue170006Ev, symObjAddr: 0x1076C, symBinAddr: 0x15B84, symSize: 0x4C }
  - { offsetInCU: 0xA2A18, offset: 0xA2A18, size: 0x8, addend: 0x0, symName: __ZNSt3__112__hash_tableINS_17__hash_value_typeIPKvNS_10unique_ptrIvPFvPvEEEEENS_22__unordered_map_hasherIS3_S9_NS_4hashIS3_EENS_8equal_toIS3_EELb1EEENS_21__unordered_map_equalIS3_S9_SE_SC_Lb1EEENS_9allocatorIS9_EEE21__emplace_unique_implIJRPcS8_EEENS_4pairINS_15__hash_iteratorIPNS_11__hash_nodeIS9_S5_EEEEbEEDpOT_, symObjAddr: 0x10884, symBinAddr: 0x15C9C, symSize: 0xFC }
  - { offsetInCU: 0xA336D, offset: 0xA336D, size: 0x8, addend: 0x0, symName: __ZNSt3__112__hash_tableINS_17__hash_value_typeIPKvNS_10unique_ptrIvPFvPvEEEEENS_22__unordered_map_hasherIS3_S9_NS_4hashIS3_EENS_8equal_toIS3_EELb1EEENS_21__unordered_map_equalIS3_S9_SE_SC_Lb1EEENS_9allocatorIS9_EEE20__node_insert_uniqueEPNS_11__hash_nodeIS9_S5_EE, symObjAddr: 0x10980, symBinAddr: 0x15D98, symSize: 0x134 }
  - { offsetInCU: 0xA3698, offset: 0xA3698, size: 0x8, addend: 0x0, symName: __ZNSt3__112__hash_tableINS_17__hash_value_typeIPKvNS_10unique_ptrIvPFvPvEEEEENS_22__unordered_map_hasherIS3_S9_NS_4hashIS3_EENS_8equal_toIS3_EELb1EEENS_21__unordered_map_equalIS3_S9_SE_SC_Lb1EEENS_9allocatorIS9_EEE28__node_insert_unique_prepareB8ue170006EmRS9_, symObjAddr: 0x10AB4, symBinAddr: 0x15ECC, symSize: 0x1C8 }
  - { offsetInCU: 0xA39B8, offset: 0xA39B8, size: 0x8, addend: 0x0, symName: __ZNSt3__112__hash_tableINS_17__hash_value_typeIPKvNS_10unique_ptrIvPFvPvEEEEENS_22__unordered_map_hasherIS3_S9_NS_4hashIS3_EENS_8equal_toIS3_EELb1EEENS_21__unordered_map_equalIS3_S9_SE_SC_Lb1EEENS_9allocatorIS9_EEE11__do_rehashILb1EEEvm, symObjAddr: 0x10C7C, symBinAddr: 0x16094, symSize: 0x15C }
  - { offsetInCU: 0xA3E34, offset: 0xA3E34, size: 0x8, addend: 0x0, symName: __ZNSt3__112__hash_tableINS_17__hash_value_typeIPKvNS_10unique_ptrIvPFvPvEEEEENS_22__unordered_map_hasherIS3_S9_NS_4hashIS3_EENS_8equal_toIS3_EELb1EEENS_21__unordered_map_equalIS3_S9_SE_SC_Lb1EEENS_9allocatorIS9_EEE21__emplace_unique_implIJRPiS8_EEENS_4pairINS_15__hash_iteratorIPNS_11__hash_nodeIS9_S5_EEEEbEEDpOT_, symObjAddr: 0x10DD8, symBinAddr: 0x161F0, symSize: 0xFC }
  - { offsetInCU: 0xA40D9, offset: 0xA40D9, size: 0x8, addend: 0x0, symName: __ZN3mlc3ffi8registry9TypeTable8NewArrayI12MLCTypeFieldEEPT_x, symObjAddr: 0x112FC, symBinAddr: 0x16714, symSize: 0xCC }
  - { offsetInCU: 0xA43BF, offset: 0xA43BF, size: 0x8, addend: 0x0, symName: __ZN3mlc3ffi8registry9TypeTable8NewArrayI13MLCTypeMethodEEPT_x, symObjAddr: 0x12644, symBinAddr: 0x17A5C, symSize: 0xCC }
  - { offsetInCU: 0xA471C, offset: 0xA471C, size: 0x8, addend: 0x0, symName: __ZNSt3__112__hash_tableINS_17__hash_value_typeIPKvNS_10unique_ptrIvPFvPvEEEEENS_22__unordered_map_hasherIS3_S9_NS_4hashIS3_EENS_8equal_toIS3_EELb1EEENS_21__unordered_map_equalIS3_S9_SE_SC_Lb1EEENS_9allocatorIS9_EEE21__emplace_unique_implIJRP12MLCTypeFieldS8_EEENS_4pairINS_15__hash_iteratorIPNS_11__hash_nodeIS9_S5_EEEEbEEDpOT_, symObjAddr: 0x113C8, symBinAddr: 0x167E0, symSize: 0xFC }
  - { offsetInCU: 0xA5043, offset: 0xA5043, size: 0x8, addend: 0x0, symName: __ZNSt3__112__hash_tableINS_17__hash_value_typeIPKvNS_10unique_ptrIvPFvPvEEEEENS_22__unordered_map_hasherIS3_S9_NS_4hashIS3_EENS_8equal_toIS3_EELb1EEENS_21__unordered_map_equalIS3_S9_SE_SC_Lb1EEENS_9allocatorIS9_EEE21__emplace_unique_implIJRP13MLCTypeMethodS8_EEENS_4pairINS_15__hash_iteratorIPNS_11__hash_nodeIS9_S5_EEEEbEEDpOT_, symObjAddr: 0x1280C, symBinAddr: 0x17C24, symSize: 0xFC }
  - { offsetInCU: 0xA586B, offset: 0xA586B, size: 0x8, addend: 0x0, symName: __ZNSt3__112__hash_tableINS_17__hash_value_typeIPKvNS_10unique_ptrI6MLCAnyPFvPS5_EEEEENS_22__unordered_map_hasherIS3_SA_NS_4hashIS3_EENS_8equal_toIS3_EELb1EEENS_21__unordered_map_equalIS3_SA_SF_SD_Lb1EEENS_9allocatorISA_EEE21__emplace_unique_implIJRPN3mlc3ffi7FuncObjES9_EEENS_4pairINS_15__hash_iteratorIPNS_11__hash_nodeISA_PvEEEEbEEDpOT_, symObjAddr: 0x132B0, symBinAddr: 0x186C8, symSize: 0xFC }
  - { offsetInCU: 0xA5EC3, offset: 0xA5EC3, size: 0x8, addend: 0x0, symName: __ZN3mlc3ffi8registry9TypeTable9NewObjPtrINS0_7FuncObjEEEvPPT_S6_.cold.1, symObjAddr: 0x249F4, symBinAddr: 0x50290, symSize: 0x30 }
  - { offsetInCU: 0xA6781, offset: 0xA6781, size: 0x8, addend: 0x0, symName: __ZNSt3__112__hash_tableINS_17__hash_value_typeINS_12basic_stringIcNS_11char_traitsIcEENS_9allocatorIcEEEENS_13unordered_mapIiPN3mlc3ffi7FuncObjENS_4hashIiEENS_8equal_toIiEENS5_INS_4pairIKiSC_EEEEEEEENS_22__unordered_map_hasherIS7_SM_NSD_IS7_EENSF_IS7_EELb1EEENS_21__unordered_map_equalIS7_SM_SP_SO_Lb1EEENS5_ISM_EEE11__do_rehashILb1EEEvm, symObjAddr: 0x12D34, symBinAddr: 0x1814C, symSize: 0x15C }
  - { offsetInCU: 0xA6BFD, offset: 0xA6BFD, size: 0x8, addend: 0x0, symName: __ZNSt3__112__hash_tableINS_17__hash_value_typeIiPN3mlc3ffi7FuncObjEEENS_22__unordered_map_hasherIiS6_NS_4hashIiEENS_8equal_toIiEELb1EEENS_21__unordered_map_equalIiS6_SB_S9_Lb1EEENS_9allocatorIS6_EEE25__emplace_unique_key_argsIiJRKNS_21piecewise_construct_tENS_5tupleIJRKiEEENSM_IJODnEEEEEENS_4pairINS_15__hash_iteratorIPNS_11__hash_nodeIS6_PvEEEEbEERKT_DpOT0_, symObjAddr: 0x12E90, symBinAddr: 0x182A8, symSize: 0x2C4 }
  - { offsetInCU: 0xA6C12, offset: 0xA6C12, size: 0x8, addend: 0x0, symName: __ZNSt3__110unique_ptrINS_11__hash_nodeINS_17__hash_value_typeINS_12basic_stringIcNS_11char_traitsIcEENS_9allocatorIcEEEENS_13unordered_mapIiPN3mlc3ffi7FuncObjENS_4hashIiEENS_8equal_toIiEENS6_INS_4pairIKiSD_EEEEEEEEPvEENS_22__hash_node_destructorINS6_ISP_EEEEED1B8ue170006Ev, symObjAddr: 0x12CB8, symBinAddr: 0x180D0, symSize: 0x7C }
  - { offsetInCU: 0xA79C8, offset: 0xA79C8, size: 0x8, addend: 0x0, symName: __ZNSt3__112__hash_tableINS_17__hash_value_typeIiPN3mlc3ffi7FuncObjEEENS_22__unordered_map_hasherIiS6_NS_4hashIiEENS_8equal_toIiEELb1EEENS_21__unordered_map_equalIiS6_SB_S9_Lb1EEENS_9allocatorIS6_EEE11__do_rehashILb1EEEvm, symObjAddr: 0x13154, symBinAddr: 0x1856C, symSize: 0x15C }
  - { offsetInCU: 0xA7E44, offset: 0xA7E44, size: 0x8, addend: 0x0, symName: __ZNSt3__112__hash_tableINS_17__hash_value_typeIPKvNS_10unique_ptrI6MLCAnyPFvPS5_EEEEENS_22__unordered_map_hasherIS3_SA_NS_4hashIS3_EENS_8equal_toIS3_EELb1EEENS_21__unordered_map_equalIS3_SA_SF_SD_Lb1EEENS_9allocatorISA_EEE21__emplace_unique_implIJRPN3mlc3ffi7FuncObjES9_EEENS_4pairINS_15__hash_iteratorIPNS_11__hash_nodeISA_PvEEEEbEEDpOT_, symObjAddr: 0x132B0, symBinAddr: 0x186C8, symSize: 0xFC }
  - { offsetInCU: 0xA88F6, offset: 0xA88F6, size: 0x8, addend: 0x0, symName: __ZNSt3__112__hash_tableINS_17__hash_value_typeINS_12basic_stringIcNS_11char_traitsIcEENS_9allocatorIcEEEENS_10unique_ptrIN3mlc3ffi10DSOLibraryENS_14default_deleteISB_EEEEEENS_22__unordered_map_hasherIS7_SF_NS_4hashIS7_EENS_8equal_toIS7_EELb1EEENS_21__unordered_map_equalIS7_SF_SK_SI_Lb1EEENS5_ISF_EEED2Ev, symObjAddr: 0x142E0, symBinAddr: 0x196F8, symSize: 0x8C }
  - { offsetInCU: 0xA8DBF, offset: 0xA8DBF, size: 0x8, addend: 0x0, symName: __ZNSt3__112__hash_tableINS_17__hash_value_typeINS_12basic_stringIcNS_11char_traitsIcEENS_9allocatorIcEEEENS_13unordered_mapIiPN3mlc3ffi7FuncObjENS_4hashIiEENS_8equal_toIiEENS5_INS_4pairIKiSC_EEEEEEEENS_22__unordered_map_hasherIS7_SM_NSD_IS7_EENSF_IS7_EELb1EEENS_21__unordered_map_equalIS7_SM_SP_SO_Lb1EEENS5_ISM_EEED2Ev, symObjAddr: 0x1436C, symBinAddr: 0x19784, symSize: 0x90 }
  - { offsetInCU: 0xA9DB9, offset: 0xA9DB9, size: 0x8, addend: 0x0, symName: __ZNSt3__112__hash_tableINS_17__hash_value_typeINS_12basic_stringIcNS_11char_traitsIcEENS_9allocatorIcEEEEPN3mlc3ffi7FuncObjEEENS_22__unordered_map_hasherIS7_SC_NS_4hashIS7_EENS_8equal_toIS7_EELb1EEENS_21__unordered_map_equalIS7_SC_SH_SF_Lb1EEENS5_ISC_EEE11__do_rehashILb1EEEvm, symObjAddr: 0x147E8, symBinAddr: 0x19C00, symSize: 0x15C }
  - { offsetInCU: 0xAA235, offset: 0xAA235, size: 0x8, addend: 0x0, symName: __ZNSt3__112__hash_tableINS_17__hash_value_typeINS_12basic_stringIcNS_11char_traitsIcEENS_9allocatorIcEEEEPN3mlc3ffi7FuncObjEEENS_22__unordered_map_hasherIS7_SC_NS_4hashIS7_EENS_8equal_toIS7_EELb1EEENS_21__unordered_map_equalIS7_SC_SH_SF_Lb1EEENS5_ISC_EEE4findIS7_EENS_15__hash_iteratorIPNS_11__hash_nodeISC_PvEEEERKT_, symObjAddr: 0x14944, symBinAddr: 0x19D5C, symSize: 0x184 }
  - { offsetInCU: 0xAA24A, offset: 0xAA24A, size: 0x8, addend: 0x0, symName: __ZNSt3__110unique_ptrINS_11__hash_nodeINS_17__hash_value_typeINS_12basic_stringIcNS_11char_traitsIcEENS_9allocatorIcEEEEPN3mlc3ffi7FuncObjEEEPvEENS_22__hash_node_destructorINS6_ISF_EEEEED1B8ue170006Ev, symObjAddr: 0x1479C, symBinAddr: 0x19BB4, symSize: 0x4C }
  - { offsetInCU: 0xAA68D, offset: 0xAA68D, size: 0x8, addend: 0x0, symName: __ZZN3mlc3ffi7FuncObj11FromForeignEPvPFvS2_EPFiPKviPK6MLCAnyPS7_EENKUliS9_SA_E_clEiS9_SA_, symObjAddr: 0x14B2C, symBinAddr: 0x19F44, symSize: 0x6E0 }
  - { offsetInCU: 0xAB99A, offset: 0xAB99A, size: 0x8, addend: 0x0, symName: __ZN3mlc3ffi7details22DefaultObjectAllocatorINS1_8FuncImplIZNS0_7FuncObj11FromForeignEPvPFvS5_EPFiPKviPK6MLCAnyPSA_EEUliSC_SD_E_EEvE7DeleterES5_, symObjAddr: 0x14B20, symBinAddr: 0x19F38, symSize: 0xC }
  - { offsetInCU: 0xAB9D3, offset: 0xAB9D3, size: 0x8, addend: 0x0, symName: __ZZN3mlc3ffi7FuncObj11FromForeignEPvPFvS2_EPFiPKviPK6MLCAnyPS7_EENKUliS9_SA_E0_clEiS9_SA_, symObjAddr: 0x15264, symBinAddr: 0x1A67C, symSize: 0x6E4 }
  - { offsetInCU: 0xACD50, offset: 0xACD50, size: 0x8, addend: 0x0, symName: __ZN3mlc3ffi7details22DefaultObjectAllocatorINS1_8FuncImplIZNS0_7FuncObj11FromForeignEPvPFvS5_EPFiPKviPK6MLCAnyPSA_EEUliSC_SD_E0_EEvE7DeleterES5_, symObjAddr: 0x15214, symBinAddr: 0x1A62C, symSize: 0x50 }
  - { offsetInCU: 0xACED2, offset: 0xACED2, size: 0x8, addend: 0x0, symName: __ZNSt3__120__shared_ptr_pointerIPvPFvS1_ENS_9allocatorIvEEED1Ev, symObjAddr: 0x15948, symBinAddr: 0x1AD60, symSize: 0x4 }
  - { offsetInCU: 0xACEF4, offset: 0xACEF4, size: 0x8, addend: 0x0, symName: __ZNSt3__120__shared_ptr_pointerIPvPFvS1_ENS_9allocatorIvEEED1Ev, symObjAddr: 0x15948, symBinAddr: 0x1AD60, symSize: 0x4 }
  - { offsetInCU: 0xACF2A, offset: 0xACF2A, size: 0x8, addend: 0x0, symName: __ZNSt3__120__shared_ptr_pointerIPvPFvS1_ENS_9allocatorIvEEED0Ev, symObjAddr: 0x1594C, symBinAddr: 0x1AD64, symSize: 0x14 }
  - { offsetInCU: 0xACF8D, offset: 0xACF8D, size: 0x8, addend: 0x0, symName: __ZNSt3__120__shared_ptr_pointerIPvPFvS1_ENS_9allocatorIvEEE16__on_zero_sharedEv, symObjAddr: 0x15960, symBinAddr: 0x1AD78, symSize: 0x1C }
  - { offsetInCU: 0xAD036, offset: 0xAD036, size: 0x8, addend: 0x0, symName: __ZNKSt3__120__shared_ptr_pointerIPvPFvS1_ENS_9allocatorIvEEE13__get_deleterERKSt9type_info, symObjAddr: 0x1597C, symBinAddr: 0x1AD94, symSize: 0x6C }
  - { offsetInCU: 0xAD12A, offset: 0xAD12A, size: 0x8, addend: 0x0, symName: __ZNSt3__120__shared_ptr_pointerIPvPFvS1_ENS_9allocatorIvEEE21__on_zero_shared_weakEv, symObjAddr: 0x159E8, symBinAddr: 0x1AE00, symSize: 0x4 }
  - { offsetInCU: 0xAD15F, offset: 0xAD15F, size: 0x8, addend: 0x0, symName: __ZNSt3__120__shared_ptr_pointerIPvPFvS1_ENS_9allocatorIvEEE21__on_zero_shared_weakEv, symObjAddr: 0x159E8, symBinAddr: 0x1AE00, symSize: 0x4 }
  - { offsetInCU: 0xAD181, offset: 0xAD181, size: 0x8, addend: 0x0, symName: __ZNSt3__120__shared_ptr_pointerIPvPFvS1_ENS_9allocatorIvEEE21__on_zero_shared_weakEv, symObjAddr: 0x159E8, symBinAddr: 0x1AE00, symSize: 0x4 }
  - { offsetInCU: 0xAD1AD, offset: 0xAD1AD, size: 0x8, addend: 0x0, symName: __ZNSt3__120__shared_ptr_pointerIPvPFvS1_ENS_9allocatorIvEEE21__on_zero_shared_weakEv, symObjAddr: 0x159E8, symBinAddr: 0x1AE00, symSize: 0x4 }
  - { offsetInCU: 0xAD1D4, offset: 0xAD1D4, size: 0x8, addend: 0x0, symName: __ZNSt3__120__shared_ptr_pointerIPvPFvS1_ENS_9allocatorIvEEE21__on_zero_shared_weakEv, symObjAddr: 0x159E8, symBinAddr: 0x1AE00, symSize: 0x4 }
  - { offsetInCU: 0xAD384, offset: 0xAD384, size: 0x8, addend: 0x0, symName: __ZNSt3__112__hash_tableINS_17__hash_value_typeINS_12basic_stringIcNS_11char_traitsIcEENS_9allocatorIcEEEE12DLDeviceTypeEENS_22__unordered_map_hasherIS7_S9_NS_4hashIS7_EENS_8equal_toIS7_EELb1EEENS_21__unordered_map_equalIS7_S9_SE_SC_Lb1EEENS5_IS9_EEE21__construct_node_hashIRKNS_4pairIKS7_S8_EEJEEENS_10unique_ptrINS_11__hash_nodeIS9_PvEENS_22__hash_node_destructorINS5_IST_EEEEEEmOT_DpOT0_, symObjAddr: 0x15D80, symBinAddr: 0x1B198, symSize: 0xEC }
  - { offsetInCU: 0xAD96B, offset: 0xAD96B, size: 0x8, addend: 0x0, symName: __ZNSt3__112__hash_tableINS_17__hash_value_typeINS_12basic_stringIcNS_11char_traitsIcEENS_9allocatorIcEEEE12DLDeviceTypeEENS_22__unordered_map_hasherIS7_S9_NS_4hashIS7_EENS_8equal_toIS7_EELb1EEENS_21__unordered_map_equalIS7_S9_SE_SC_Lb1EEENS5_IS9_EEE11__do_rehashILb1EEEvm, symObjAddr: 0x15EB8, symBinAddr: 0x1B2D0, symSize: 0x15C }
  - { offsetInCU: 0xADDE7, offset: 0xADDE7, size: 0x8, addend: 0x0, symName: __ZNSt3__112__hash_tableINS_17__hash_value_typeINS_12basic_stringIcNS_11char_traitsIcEENS_9allocatorIcEEEE10DLDataTypeEENS_22__unordered_map_hasherIS7_S9_NS_4hashIS7_EENS_8equal_toIS7_EELb1EEENS_21__unordered_map_equalIS7_S9_SE_SC_Lb1EEENS5_IS9_EEE25__emplace_unique_key_argsIS7_JRKNS_4pairIKS7_S8_EEEEENSL_INS_15__hash_iteratorIPNS_11__hash_nodeIS9_PvEEEEbEERKT_DpOT0_, symObjAddr: 0x16014, symBinAddr: 0x1B42C, symSize: 0x380 }
  - { offsetInCU: 0xADDFC, offset: 0xADDFC, size: 0x8, addend: 0x0, symName: __ZNSt3__110unique_ptrINS_11__hash_nodeINS_17__hash_value_typeINS_12basic_stringIcNS_11char_traitsIcEENS_9allocatorIcEEEE12DLDeviceTypeEEPvEENS_22__hash_node_destructorINS6_ISC_EEEEED1B8ue170006Ev, symObjAddr: 0x15E6C, symBinAddr: 0x1B284, symSize: 0x4C }
  - { offsetInCU: 0xAE613, offset: 0xAE613, size: 0x8, addend: 0x0, symName: __ZNSt3__112__hash_tableINS_17__hash_value_typeINS_12basic_stringIcNS_11char_traitsIcEENS_9allocatorIcEEEE10DLDataTypeEENS_22__unordered_map_hasherIS7_S9_NS_4hashIS7_EENS_8equal_toIS7_EELb1EEENS_21__unordered_map_equalIS7_S9_SE_SC_Lb1EEENS5_IS9_EEE21__construct_node_hashIRKNS_4pairIKS7_S8_EEJEEENS_10unique_ptrINS_11__hash_nodeIS9_PvEENS_22__hash_node_destructorINS5_IST_EEEEEEmOT_DpOT0_, symObjAddr: 0x16394, symBinAddr: 0x1B7AC, symSize: 0xEC }
  - { offsetInCU: 0xAEBFA, offset: 0xAEBFA, size: 0x8, addend: 0x0, symName: __ZNSt3__112__hash_tableINS_17__hash_value_typeINS_12basic_stringIcNS_11char_traitsIcEENS_9allocatorIcEEEE10DLDataTypeEENS_22__unordered_map_hasherIS7_S9_NS_4hashIS7_EENS_8equal_toIS7_EELb1EEENS_21__unordered_map_equalIS7_S9_SE_SC_Lb1EEENS5_IS9_EEE11__do_rehashILb1EEEvm, symObjAddr: 0x164CC, symBinAddr: 0x1B8E4, symSize: 0x15C }
  - { offsetInCU: 0xAF076, offset: 0xAF076, size: 0x8, addend: 0x0, symName: __ZN3mlc3ffi7details16FuncCallUnpackedIPFNS0_3RefINS0_6ObjectEEEvEEEvPKNS0_7FuncObjEiPKNS0_7AnyViewEPNS0_3AnyE, symObjAddr: 0x16628, symBinAddr: 0x1BA40, symSize: 0x1B4 }
  - { offsetInCU: 0xAF08B, offset: 0xAF08B, size: 0x8, addend: 0x0, symName: __ZNSt3__110unique_ptrINS_11__hash_nodeINS_17__hash_value_typeINS_12basic_stringIcNS_11char_traitsIcEENS_9allocatorIcEEEE10DLDataTypeEEPvEENS_22__hash_node_destructorINS6_ISC_EEEEED1B8ue170006Ev, symObjAddr: 0x16480, symBinAddr: 0x1B898, symSize: 0x4C }
  - { offsetInCU: 0xAF79E, offset: 0xAF79E, size: 0x8, addend: 0x0, symName: __ZN3mlc3ffi7details8Func2StrINS0_3RefINS0_6ObjectEEEJEE3RunIJEEENSt3__112basic_stringIcNS8_11char_traitsIcEENS8_9allocatorIcEEEENS8_16integer_sequenceImJXspT_EEEE, symObjAddr: 0x167E8, symBinAddr: 0x1BC00, symSize: 0x1D4 }
  - { offsetInCU: 0xAFD91, offset: 0xAFD91, size: 0x8, addend: 0x0, symName: __ZN3mlc3ffi7details22DefaultObjectAllocatorINS1_8FuncImplIPFNS0_3RefINS0_6ObjectEEEvEEEvE7DeleterEPv, symObjAddr: 0x167DC, symBinAddr: 0x1BBF4, symSize: 0xC }
  - { offsetInCU: 0xAFDC0, offset: 0xAFDC0, size: 0x8, addend: 0x0, symName: __ZN3mlc3ffi8Type2StrINS0_3RefINS0_6ObjectEEEE3RunEv, symObjAddr: 0x169BC, symBinAddr: 0x1BDD4, symSize: 0x114 }
  - { offsetInCU: 0xB0586, offset: 0xB0586, size: 0x8, addend: 0x0, symName: __ZN3mlc3ffi7details22DefaultObjectAllocatorINS0_6ObjectEvE7DeleterEPv, symObjAddr: 0x16AD0, symBinAddr: 0x1BEE8, symSize: 0xC }
  - { offsetInCU: 0xB06E0, offset: 0xB06E0, size: 0x8, addend: 0x0, symName: __ZN3mlc3ffi7details13ReflectGetterIPKcE3RunEPvP6MLCAny, symObjAddr: 0x16ADC, symBinAddr: 0x1BEF4, symSize: 0x264 }
  - { offsetInCU: 0xB0E36, offset: 0xB0E36, size: 0x8, addend: 0x0, symName: __ZNK3mlc3ffi7AnyView4CastIPKNS0_8ErrorObjEEET_v, symObjAddr: 0x175D0, symBinAddr: 0x1C9E8, symSize: 0x268 }
  - { offsetInCU: 0xB148C, offset: 0xB148C, size: 0x8, addend: 0x0, symName: __ZN3mlc3ffi7details8Func2StrINSt3__112basic_stringIcNS3_11char_traitsIcEENS3_9allocatorIcEEEEJPKNS0_8ErrorObjEEE3RunIJLm0EEEES9_NS3_16integer_sequenceImJXspT_EEEE, symObjAddr: 0x17270, symBinAddr: 0x1C688, symSize: 0x1C0 }
  - { offsetInCU: 0xB1C15, offset: 0xB1C15, size: 0x8, addend: 0x0, symName: __ZN3mlc3ffi7details16FuncCallUnpackedIZNS1_17FuncAllocatorImplIMNS0_8ErrorObjEKFNSt3__112basic_stringIcNS5_11char_traitsIcEENS5_9allocatorIcEEEEvEvE3RunESD_EUlPKS4_E_EEvPKNS0_7FuncObjEiPKNS0_7AnyViewEPNS0_3AnyE.cold.1, symObjAddr: 0x24A24, symBinAddr: 0x502C0, symSize: 0x40 }
  - { offsetInCU: 0xB1C61, offset: 0xB1C61, size: 0x8, addend: 0x0, symName: __ZN3mlc3ffi8Type2StrIPKNS0_8ErrorObjEE3RunEv, symObjAddr: 0x17530, symBinAddr: 0x1C948, symSize: 0xA0 }
  - { offsetInCU: 0xB21C0, offset: 0xB21C0, size: 0x8, addend: 0x0, symName: __ZN3mlc3ffi7details22DefaultObjectAllocatorINS1_8FuncImplIZNS1_17FuncAllocatorImplIMNS0_8ErrorObjEKFNSt3__112basic_stringIcNS6_11char_traitsIcEENS6_9allocatorIcEEEEvEvE3RunESE_EUlPKS5_E_EEvE7DeleterEPv, symObjAddr: 0x17264, symBinAddr: 0x1C67C, symSize: 0xC }
  - { offsetInCU: 0xB21EF, offset: 0xB21EF, size: 0x8, addend: 0x0, symName: __ZN3mlc3ffi7details8Func2StrINSt3__112basic_stringIcNS3_11char_traitsIcEENS3_9allocatorIcEEEEJPKNS0_8ErrorObjEEE5ApplyILm0EEEvRNS3_13basic_ostreamIcS6_EE, symObjAddr: 0x17430, symBinAddr: 0x1C848, symSize: 0x100 }
  - { offsetInCU: 0xB2ABE, offset: 0xB2ABE, size: 0x8, addend: 0x0, symName: __ZN3mlc3ffi7details13ReflectGetterIxE3RunEPvP6MLCAny, symObjAddr: 0x17838, symBinAddr: 0x1CC50, symSize: 0x60 }
  - { offsetInCU: 0xB2DA9, offset: 0xB2DA9, size: 0x8, addend: 0x0, symName: __ZN3mlc3ffi7details13ReflectGetterIPvE3RunES3_P6MLCAny, symObjAddr: 0x17898, symBinAddr: 0x1CCB0, symSize: 0x64 }
  - { offsetInCU: 0xB301F, offset: 0xB301F, size: 0x8, addend: 0x0, symName: __ZNK3mlc3ffi7AnyView4CastIPKNS0_8UDictObjEEET_v, symObjAddr: 0x1818C, symBinAddr: 0x1D5A4, symSize: 0x268 }
  - { offsetInCU: 0xB3675, offset: 0xB3675, size: 0x8, addend: 0x0, symName: __ZN3mlc3ffi7details8Func2StrINSt3__112basic_stringIcNS3_11char_traitsIcEENS3_9allocatorIcEEEEJPKNS0_8UDictObjEEE3RunIJLm0EEEES9_NS3_16integer_sequenceImJXspT_EEEE, symObjAddr: 0x17E2C, symBinAddr: 0x1D244, symSize: 0x1C0 }
  - { offsetInCU: 0xB3DFE, offset: 0xB3DFE, size: 0x8, addend: 0x0, symName: __ZN3mlc3ffi7details16FuncCallUnpackedIZNS1_17FuncAllocatorImplIMNS0_8UDictObjEKFNSt3__112basic_stringIcNS5_11char_traitsIcEENS5_9allocatorIcEEEEvEvE3RunESD_EUlPKS4_E_EEvPKNS0_7FuncObjEiPKNS0_7AnyViewEPNS0_3AnyE.cold.1, symObjAddr: 0x24A64, symBinAddr: 0x50300, symSize: 0x40 }
  - { offsetInCU: 0xB3E4A, offset: 0xB3E4A, size: 0x8, addend: 0x0, symName: __ZN3mlc3ffi8Type2StrIPKNS0_8UDictObjEE3RunEv, symObjAddr: 0x180EC, symBinAddr: 0x1D504, symSize: 0xA0 }
  - { offsetInCU: 0xB43A9, offset: 0xB43A9, size: 0x8, addend: 0x0, symName: __ZN3mlc3ffi7details22DefaultObjectAllocatorINS1_8FuncImplIZNS1_17FuncAllocatorImplIMNS0_8UDictObjEKFNSt3__112basic_stringIcNS6_11char_traitsIcEENS6_9allocatorIcEEEEvEvE3RunESE_EUlPKS5_E_EEvE7DeleterEPv, symObjAddr: 0x17E20, symBinAddr: 0x1D238, symSize: 0xC }
  - { offsetInCU: 0xB43D8, offset: 0xB43D8, size: 0x8, addend: 0x0, symName: __ZN3mlc3ffi7details8Func2StrINSt3__112basic_stringIcNS3_11char_traitsIcEENS3_9allocatorIcEEEEJPKNS0_8UDictObjEEE5ApplyILm0EEEvRNS3_13basic_ostreamIcS6_EE, symObjAddr: 0x17FEC, symBinAddr: 0x1D404, symSize: 0x100 }
  - { offsetInCU: 0xB4BC7, offset: 0xB4BC7, size: 0x8, addend: 0x0, symName: __ZN3mlc3ffi8DictBase17TryInsertOrLookupINS0_7AnyHashENS0_8AnyEqualEEEPNSt3__14pairI6MLCAnyS7_EEPS7_, symObjAddr: 0x18644, symBinAddr: 0x1DA5C, symSize: 0x35C }
  - { offsetInCU: 0xB512E, offset: 0xB512E, size: 0x8, addend: 0x0, symName: __ZN3mlc3ffi8DictBase12WithCapacityINS0_8UDictObjEEENS0_3RefIT_EEx, symObjAddr: 0x189A0, symBinAddr: 0x1DDB8, symSize: 0x22C }
  - { offsetInCU: 0xB567E, offset: 0xB567E, size: 0x8, addend: 0x0, symName: __ZN3mlc3ffi7details22DefaultObjectAllocatorINS0_8UDictObjEvE7DeleterEPv, symObjAddr: 0x184FC, symBinAddr: 0x1D914, symSize: 0x148 }
  - { offsetInCU: 0xB5A54, offset: 0xB5A54, size: 0x8, addend: 0x0, symName: __ZNK3mlc3ffi7AnyHashclERK6MLCAny, symObjAddr: 0x18BCC, symBinAddr: 0x1DFE4, symSize: 0x194 }
  - { offsetInCU: 0xB5B1F, offset: 0xB5B1F, size: 0x8, addend: 0x0, symName: __ZNK3mlc3ffi8DictBase4PrevINS0_7AnyHashEEENS0_13DictBlockIterES4_, symObjAddr: 0x18D60, symBinAddr: 0x1E178, symSize: 0x124 }
  - { offsetInCU: 0xB5DEF, offset: 0xB5DEF, size: 0x8, addend: 0x0, symName: __ZZN3mlc3ffi8DictBase12WithCapacityINS0_8UDictObjEEENS0_3RefIT_EExENKUlPhP6MLCAnyS9_E_clES7_S9_S9_, symObjAddr: 0x18E84, symBinAddr: 0x1E29C, symSize: 0x1C8 }
  - { offsetInCU: 0xB639A, offset: 0xB639A, size: 0x8, addend: 0x0, symName: __ZN3mlc3ffi7details22DefaultObjectAllocatorINS1_8FuncImplIPFviPKNS0_7AnyViewEPNS0_3AnyEEEEvE7DeleterEPv, symObjAddr: 0x19060, symBinAddr: 0x1E478, symSize: 0xC }
  - { offsetInCU: 0xB646E, offset: 0xB646E, size: 0x8, addend: 0x0, symName: __ZNK3mlc3ffi7AnyView4CastIPNS0_8UDictObjEEET_v, symObjAddr: 0x19BC8, symBinAddr: 0x1EFE0, symSize: 0x268 }
  - { offsetInCU: 0xB6AC4, offset: 0xB6AC4, size: 0x8, addend: 0x0, symName: __ZN3mlc3ffi7details8Func2StrINS0_3AnyEJPNS0_8UDictObjES3_EE3RunIJLm0ELm1EEEENSt3__112basic_stringIcNS8_11char_traitsIcEENS8_9allocatorIcEEEENS8_16integer_sequenceImJXspT_EEEE, symObjAddr: 0x197C4, symBinAddr: 0x1EBDC, symSize: 0x1C8 }
  - { offsetInCU: 0xB7267, offset: 0xB7267, size: 0x8, addend: 0x0, symName: __ZN3mlc3ffi7details16FuncCallUnpackedIPFNS0_3AnyEPNS0_8UDictObjES3_EEEvPKNS0_7FuncObjEiPKNS0_7AnyViewEPS3_.cold.1, symObjAddr: 0x24AA4, symBinAddr: 0x50340, symSize: 0x40 }
  - { offsetInCU: 0xB72B3, offset: 0xB72B3, size: 0x8, addend: 0x0, symName: __ZN3mlc3ffi8Type2StrIPNS0_8UDictObjEE3RunEv, symObjAddr: 0x19B28, symBinAddr: 0x1EF40, symSize: 0xA0 }
  - { offsetInCU: 0xB7812, offset: 0xB7812, size: 0x8, addend: 0x0, symName: __ZN3mlc3ffi7details22DefaultObjectAllocatorINS1_8FuncImplIPFNS0_3AnyEPNS0_8UDictObjES4_EEEvE7DeleterEPv, symObjAddr: 0x197B8, symBinAddr: 0x1EBD0, symSize: 0xC }
  - { offsetInCU: 0xB7848, offset: 0xB7848, size: 0x8, addend: 0x0, symName: __ZN3mlc3ffi7details8Func2StrINS0_3AnyEJPNS0_8UDictObjES3_EE5ApplyILm0EEEvRNSt3__113basic_ostreamIcNS8_11char_traitsIcEEEE, symObjAddr: 0x1998C, symBinAddr: 0x1EDA4, symSize: 0x100 }
  - { offsetInCU: 0xB7F77, offset: 0xB7F77, size: 0x8, addend: 0x0, symName: __ZN3mlc3ffi7details8Func2StrINS0_3AnyEJPNS0_8UDictObjES3_EE5ApplyILm1EEEvRNSt3__113basic_ostreamIcNS8_11char_traitsIcEEEE, symObjAddr: 0x19A8C, symBinAddr: 0x1EEA4, symSize: 0x9C }
  - { offsetInCU: 0xB85B8, offset: 0xB85B8, size: 0x8, addend: 0x0, symName: __ZNK3mlc3ffi7AnyView4CastIxEET_v, symObjAddr: 0x1A93C, symBinAddr: 0x1FD54, symSize: 0x19C }
  - { offsetInCU: 0xB8CC0, offset: 0xB8CC0, size: 0x8, addend: 0x0, symName: __ZN3mlc3ffi7details8Func2StrINS0_3AnyEJPNS0_8UDictObjExEE3RunIJLm0ELm1EEEENSt3__112basic_stringIcNS8_11char_traitsIcEENS8_9allocatorIcEEEENS8_16integer_sequenceImJXspT_EEEE, symObjAddr: 0x1A5D8, symBinAddr: 0x1F9F0, symSize: 0x1C8 }
  - { offsetInCU: 0xB9463, offset: 0xB9463, size: 0x8, addend: 0x0, symName: __ZN3mlc3ffi7details16FuncCallUnpackedIPFNS0_3AnyEPNS0_8UDictObjExEEEvPKNS0_7FuncObjEiPKNS0_7AnyViewEPS3_.cold.1, symObjAddr: 0x24AE4, symBinAddr: 0x50380, symSize: 0x40 }
  - { offsetInCU: 0xB94AF, offset: 0xB94AF, size: 0x8, addend: 0x0, symName: __ZN3mlc3ffi7details16FuncCallUnpackedIPFNS0_3AnyEPNS0_8UDictObjExEEEvPKNS0_7FuncObjEiPKNS0_7AnyViewEPS3_.cold.2, symObjAddr: 0x24B24, symBinAddr: 0x503C0, symSize: 0x40 }
  - { offsetInCU: 0xB94FB, offset: 0xB94FB, size: 0x8, addend: 0x0, symName: __ZN3mlc3ffi7details22DefaultObjectAllocatorINS1_8FuncImplIPFNS0_3AnyEPNS0_8UDictObjExEEEvE7DeleterEPv, symObjAddr: 0x1A5CC, symBinAddr: 0x1F9E4, symSize: 0xC }
  - { offsetInCU: 0xB952A, offset: 0xB952A, size: 0x8, addend: 0x0, symName: __ZN3mlc3ffi7details8Func2StrINS0_3AnyEJPNS0_8UDictObjExEE5ApplyILm0EEEvRNSt3__113basic_ostreamIcNS8_11char_traitsIcEEEE, symObjAddr: 0x1A7A0, symBinAddr: 0x1FBB8, symSize: 0x100 }
  - { offsetInCU: 0xB9C59, offset: 0xB9C59, size: 0x8, addend: 0x0, symName: __ZN3mlc3ffi7details8Func2StrINS0_3AnyEJPNS0_8UDictObjExEE5ApplyILm1EEEvRNSt3__113basic_ostreamIcNS8_11char_traitsIcEEEE, symObjAddr: 0x1A8A0, symBinAddr: 0x1FCB8, symSize: 0x9C }
  - { offsetInCU: 0xBA2DA, offset: 0xBA2DA, size: 0x8, addend: 0x0, symName: __ZN3mlc3ffi7details8Func2StrIxJPNS0_8UDictObjExEE3RunIJLm0ELm1EEEENSt3__112basic_stringIcNS7_11char_traitsIcEENS7_9allocatorIcEEEENS7_16integer_sequenceImJXspT_EEEE, symObjAddr: 0x1B244, symBinAddr: 0x2065C, symSize: 0x1C8 }
  - { offsetInCU: 0xBAA7D, offset: 0xBAA7D, size: 0x8, addend: 0x0, symName: __ZN3mlc3ffi7details16FuncCallUnpackedIPFxPNS0_8UDictObjExEEEvPKNS0_7FuncObjEiPKNS0_7AnyViewEPNS0_3AnyE.cold.1, symObjAddr: 0x24B64, symBinAddr: 0x50400, symSize: 0x40 }
  - { offsetInCU: 0xBAAC9, offset: 0xBAAC9, size: 0x8, addend: 0x0, symName: __ZN3mlc3ffi7details16FuncCallUnpackedIPFxPNS0_8UDictObjExEEEvPKNS0_7FuncObjEiPKNS0_7AnyViewEPNS0_3AnyE.cold.2, symObjAddr: 0x24BA4, symBinAddr: 0x50440, symSize: 0x40 }
  - { offsetInCU: 0xBAB15, offset: 0xBAB15, size: 0x8, addend: 0x0, symName: __ZN3mlc3ffi7details22DefaultObjectAllocatorINS1_8FuncImplIPFxPNS0_8UDictObjExEEEvE7DeleterEPv, symObjAddr: 0x1B238, symBinAddr: 0x20650, symSize: 0xC }
  - { offsetInCU: 0xBAB44, offset: 0xBAB44, size: 0x8, addend: 0x0, symName: __ZN3mlc3ffi7details8Func2StrIxJPNS0_8UDictObjExEE5ApplyILm0EEEvRNSt3__113basic_ostreamIcNS7_11char_traitsIcEEEE, symObjAddr: 0x1B40C, symBinAddr: 0x20824, symSize: 0x100 }
  - { offsetInCU: 0xBB273, offset: 0xBB273, size: 0x8, addend: 0x0, symName: __ZN3mlc3ffi7details8Func2StrIxJPNS0_8UDictObjExEE5ApplyILm1EEEvRNSt3__113basic_ostreamIcNS7_11char_traitsIcEEEE, symObjAddr: 0x1B50C, symBinAddr: 0x20924, symSize: 0x9C }
  - { offsetInCU: 0xBB832, offset: 0xBB832, size: 0x8, addend: 0x0, symName: __ZN3mlc3ffi7details13ReflectGetterIPcE3RunEPvP6MLCAny, symObjAddr: 0x1B5A8, symBinAddr: 0x209C0, symSize: 0x264 }
  - { offsetInCU: 0xBBF19, offset: 0xBBF19, size: 0x8, addend: 0x0, symName: __ZNK3mlc3ffi7AnyView4CastIPKNS0_6StrObjEEET_v, symObjAddr: 0x1C094, symBinAddr: 0x214AC, symSize: 0x268 }
  - { offsetInCU: 0xBC56F, offset: 0xBC56F, size: 0x8, addend: 0x0, symName: __ZN3mlc3ffi7details8Func2StrINSt3__112basic_stringIcNS3_11char_traitsIcEENS3_9allocatorIcEEEEJPKNS0_6StrObjEEE3RunIJLm0EEEES9_NS3_16integer_sequenceImJXspT_EEEE, symObjAddr: 0x1BD3C, symBinAddr: 0x21154, symSize: 0x1C0 }
  - { offsetInCU: 0xBCCF8, offset: 0xBCCF8, size: 0x8, addend: 0x0, symName: __ZN3mlc3ffi7details16FuncCallUnpackedIZNS1_17FuncAllocatorImplIMNS0_6StrObjEKFNSt3__112basic_stringIcNS5_11char_traitsIcEENS5_9allocatorIcEEEEvEvE3RunESD_EUlPKS4_E_EEvPKNS0_7FuncObjEiPKNS0_7AnyViewEPNS0_3AnyE.cold.1, symObjAddr: 0x24BE4, symBinAddr: 0x50480, symSize: 0x40 }
  - { offsetInCU: 0xBCD44, offset: 0xBCD44, size: 0x8, addend: 0x0, symName: __ZN3mlc3ffi8Type2StrIPKNS0_6StrObjEE3RunEv, symObjAddr: 0x1BFF8, symBinAddr: 0x21410, symSize: 0x9C }
  - { offsetInCU: 0xBD2A3, offset: 0xBD2A3, size: 0x8, addend: 0x0, symName: __ZN3mlc3ffi7details22DefaultObjectAllocatorINS1_8FuncImplIZNS1_17FuncAllocatorImplIMNS0_6StrObjEKFNSt3__112basic_stringIcNS6_11char_traitsIcEENS6_9allocatorIcEEEEvEvE3RunESE_EUlPKS5_E_EEvE7DeleterEPv, symObjAddr: 0x1BD30, symBinAddr: 0x21148, symSize: 0xC }
  - { offsetInCU: 0xBD2D2, offset: 0xBD2D2, size: 0x8, addend: 0x0, symName: __ZN3mlc3ffi7details8Func2StrINSt3__112basic_stringIcNS3_11char_traitsIcEENS3_9allocatorIcEEEEJPKNS0_6StrObjEEE5ApplyILm0EEEvRNS3_13basic_ostreamIcS6_EE, symObjAddr: 0x1BEFC, symBinAddr: 0x21314, symSize: 0xFC }
  - { offsetInCU: 0xBDB11, offset: 0xBDB11, size: 0x8, addend: 0x0, symName: __ZNK3mlc3ffi7AnyView4CastIPKNS0_8UListObjEEET_v, symObjAddr: 0x1CB8C, symBinAddr: 0x21FA4, symSize: 0x268 }
  - { offsetInCU: 0xBE167, offset: 0xBE167, size: 0x8, addend: 0x0, symName: __ZN3mlc3ffi7details8Func2StrINSt3__112basic_stringIcNS3_11char_traitsIcEENS3_9allocatorIcEEEEJPKNS0_8UListObjEEE3RunIJLm0EEEES9_NS3_16integer_sequenceImJXspT_EEEE, symObjAddr: 0x1C82C, symBinAddr: 0x21C44, symSize: 0x1C0 }
  - { offsetInCU: 0xBE8F0, offset: 0xBE8F0, size: 0x8, addend: 0x0, symName: __ZN3mlc3ffi7details16FuncCallUnpackedIZNS1_17FuncAllocatorImplIMNS0_8UListObjEKFNSt3__112basic_stringIcNS5_11char_traitsIcEENS5_9allocatorIcEEEEvEvE3RunESD_EUlPKS4_E_EEvPKNS0_7FuncObjEiPKNS0_7AnyViewEPNS0_3AnyE.cold.1, symObjAddr: 0x24C24, symBinAddr: 0x504C0, symSize: 0x40 }
  - { offsetInCU: 0xBE93C, offset: 0xBE93C, size: 0x8, addend: 0x0, symName: __ZN3mlc3ffi8Type2StrIPKNS0_8UListObjEE3RunEv, symObjAddr: 0x1CAEC, symBinAddr: 0x21F04, symSize: 0xA0 }
  - { offsetInCU: 0xBEE9B, offset: 0xBEE9B, size: 0x8, addend: 0x0, symName: __ZN3mlc3ffi7details22DefaultObjectAllocatorINS1_8FuncImplIZNS1_17FuncAllocatorImplIMNS0_8UListObjEKFNSt3__112basic_stringIcNS6_11char_traitsIcEENS6_9allocatorIcEEEEvEvE3RunESE_EUlPKS5_E_EEvE7DeleterEPv, symObjAddr: 0x1C820, symBinAddr: 0x21C38, symSize: 0xC }
  - { offsetInCU: 0xBEECA, offset: 0xBEECA, size: 0x8, addend: 0x0, symName: __ZN3mlc3ffi7details8Func2StrINSt3__112basic_stringIcNS3_11char_traitsIcEENS3_9allocatorIcEEEEJPKNS0_8UListObjEEE5ApplyILm0EEEvRNS3_13basic_ostreamIcS6_EE, symObjAddr: 0x1C9EC, symBinAddr: 0x21E04, symSize: 0x100 }
  - { offsetInCU: 0xBF730, offset: 0xBF730, size: 0x8, addend: 0x0, symName: __ZN3mlc3ffi7details22DefaultObjectAllocatorINS0_8UListObjEvE7DeleterEPv, symObjAddr: 0x1CE44, symBinAddr: 0x2225C, symSize: 0x98 }
  - { offsetInCU: 0xBFAE4, offset: 0xBFAE4, size: 0x8, addend: 0x0, symName: __ZNSt3__128__exception_guard_exceptionsINS_29_AllocatorDestroyRangeReverseINS_9allocatorIN3mlc3ffi3AnyEEEPS5_EEED1B8ue170006Ev, symObjAddr: 0x1D13C, symBinAddr: 0x22554, symSize: 0x98 }
  - { offsetInCU: 0xBFD17, offset: 0xBFD17, size: 0x8, addend: 0x0, symName: __ZNK3mlc3ffi7AnyView4CastIPNS0_8UListObjEEET_v, symObjAddr: 0x1DF6C, symBinAddr: 0x23384, symSize: 0x268 }
  - { offsetInCU: 0xC036D, offset: 0xC036D, size: 0x8, addend: 0x0, symName: __ZN3mlc3ffi7details8Func2StrINS0_3AnyEJPNS0_8UListObjExEE3RunIJLm0ELm1EEEENSt3__112basic_stringIcNS8_11char_traitsIcEENS8_9allocatorIcEEEENS8_16integer_sequenceImJXspT_EEEE, symObjAddr: 0x1DB68, symBinAddr: 0x22F80, symSize: 0x1C8 }
  - { offsetInCU: 0xC0B10, offset: 0xC0B10, size: 0x8, addend: 0x0, symName: __ZN3mlc3ffi7details16FuncCallUnpackedIPFNS0_3AnyEPNS0_8UListObjExEEEvPKNS0_7FuncObjEiPKNS0_7AnyViewEPS3_.cold.1, symObjAddr: 0x24C64, symBinAddr: 0x50500, symSize: 0x40 }
  - { offsetInCU: 0xC0B5C, offset: 0xC0B5C, size: 0x8, addend: 0x0, symName: __ZN3mlc3ffi7details16FuncCallUnpackedIPFNS0_3AnyEPNS0_8UListObjExEEEvPKNS0_7FuncObjEiPKNS0_7AnyViewEPS3_.cold.2, symObjAddr: 0x24CA4, symBinAddr: 0x50540, symSize: 0x40 }
  - { offsetInCU: 0xC0BA8, offset: 0xC0BA8, size: 0x8, addend: 0x0, symName: __ZN3mlc3ffi8Type2StrIPNS0_8UListObjEE3RunEv, symObjAddr: 0x1DECC, symBinAddr: 0x232E4, symSize: 0xA0 }
  - { offsetInCU: 0xC1107, offset: 0xC1107, size: 0x8, addend: 0x0, symName: __ZN3mlc3ffi7details22DefaultObjectAllocatorINS1_8FuncImplIPFNS0_3AnyEPNS0_8UListObjExEEEvE7DeleterEPv, symObjAddr: 0x1DB5C, symBinAddr: 0x22F74, symSize: 0xC }
  - { offsetInCU: 0xC1136, offset: 0xC1136, size: 0x8, addend: 0x0, symName: __ZN3mlc3ffi7details8Func2StrINS0_3AnyEJPNS0_8UListObjExEE5ApplyILm0EEEvRNSt3__113basic_ostreamIcNS8_11char_traitsIcEEEE, symObjAddr: 0x1DD30, symBinAddr: 0x23148, symSize: 0x100 }
  - { offsetInCU: 0xC1865, offset: 0xC1865, size: 0x8, addend: 0x0, symName: __ZN3mlc3ffi7details8Func2StrINS0_3AnyEJPNS0_8UListObjExEE5ApplyILm1EEEvRNSt3__113basic_ostreamIcNS8_11char_traitsIcEEEE, symObjAddr: 0x1DE30, symBinAddr: 0x23248, symSize: 0x9C }
  - { offsetInCU: 0xC1E77, offset: 0xC1E77, size: 0x8, addend: 0x0, symName: __ZNK3mlc3ffi7AnyView4CastIPvEET_v, symObjAddr: 0x1E920, symBinAddr: 0x23D38, symSize: 0x1B0 }
  - { offsetInCU: 0xC257F, offset: 0xC257F, size: 0x8, addend: 0x0, symName: __ZN3mlc3ffi7details8Func2StrINSt3__112basic_stringIcNS3_11char_traitsIcEENS3_9allocatorIcEEEEJPvEE3RunIJLm0EEEES9_NS3_16integer_sequenceImJXspT_EEEE, symObjAddr: 0x1E6DC, symBinAddr: 0x23AF4, symSize: 0x1C0 }
  - { offsetInCU: 0xC2D08, offset: 0xC2D08, size: 0x8, addend: 0x0, symName: __ZN3mlc3ffi7details16FuncCallUnpackedIPFNSt3__112basic_stringIcNS3_11char_traitsIcEENS3_9allocatorIcEEEEPvEEEvPKNS0_7FuncObjEiPKNS0_7AnyViewEPNS0_3AnyE.cold.1, symObjAddr: 0x24CE4, symBinAddr: 0x50580, symSize: 0x40 }
  - { offsetInCU: 0xC2D54, offset: 0xC2D54, size: 0x8, addend: 0x0, symName: __ZN3mlc3ffi7details22DefaultObjectAllocatorINS1_8FuncImplIPFNSt3__112basic_stringIcNS4_11char_traitsIcEENS4_9allocatorIcEEEEPvEEEvE7DeleterESB_, symObjAddr: 0x1E6D0, symBinAddr: 0x23AE8, symSize: 0xC }
  - { offsetInCU: 0xC2D83, offset: 0xC2D83, size: 0x8, addend: 0x0, symName: __ZN3mlc3ffi7details8Func2StrINSt3__112basic_stringIcNS3_11char_traitsIcEENS3_9allocatorIcEEEEJPvEE5ApplyILm0EEEvRNS3_13basic_ostreamIcS6_EE, symObjAddr: 0x1E89C, symBinAddr: 0x23CB4, symSize: 0x84 }
  - { offsetInCU: 0xC3366, offset: 0xC3366, size: 0x8, addend: 0x0, symName: __ZN3mlc3ffi7details8Func2StrINSt3__112basic_stringIcNS3_11char_traitsIcEENS3_9allocatorIcEEEEJxEE3RunIJLm0EEEES9_NS3_16integer_sequenceImJXspT_EEEE, symObjAddr: 0x1EFD8, symBinAddr: 0x243F0, symSize: 0x1C0 }
  - { offsetInCU: 0xC3AEF, offset: 0xC3AEF, size: 0x8, addend: 0x0, symName: __ZN3mlc3ffi7details16FuncCallUnpackedIPFNSt3__112basic_stringIcNS3_11char_traitsIcEENS3_9allocatorIcEEEExEEEvPKNS0_7FuncObjEiPKNS0_7AnyViewEPNS0_3AnyE.cold.1, symObjAddr: 0x24D24, symBinAddr: 0x505C0, symSize: 0x40 }
  - { offsetInCU: 0xC3B3B, offset: 0xC3B3B, size: 0x8, addend: 0x0, symName: __ZN3mlc3ffi7details22DefaultObjectAllocatorINS1_8FuncImplIPFNSt3__112basic_stringIcNS4_11char_traitsIcEENS4_9allocatorIcEEEExEEEvE7DeleterEPv, symObjAddr: 0x1EFCC, symBinAddr: 0x243E4, symSize: 0xC }
  - { offsetInCU: 0xC3B6A, offset: 0xC3B6A, size: 0x8, addend: 0x0, symName: __ZN3mlc3ffi7details8Func2StrINSt3__112basic_stringIcNS3_11char_traitsIcEENS3_9allocatorIcEEEEJxEE5ApplyILm0EEEvRNS3_13basic_ostreamIcS6_EE, symObjAddr: 0x1F198, symBinAddr: 0x245B0, symSize: 0x84 }
  - { offsetInCU: 0xC40E5, offset: 0xC40E5, size: 0x8, addend: 0x0, symName: __ZNK3mlc3ffi7AnyView4CastIdEET_v, symObjAddr: 0x1F978, symBinAddr: 0x24D90, symSize: 0x1B8 }
  - { offsetInCU: 0xC47ED, offset: 0xC47ED, size: 0x8, addend: 0x0, symName: __ZN3mlc3ffi7details8Func2StrINSt3__112basic_stringIcNS3_11char_traitsIcEENS3_9allocatorIcEEEEJdEE3RunIJLm0EEEES9_NS3_16integer_sequenceImJXspT_EEEE, symObjAddr: 0x1F72C, symBinAddr: 0x24B44, symSize: 0x1C0 }
  - { offsetInCU: 0xC4F76, offset: 0xC4F76, size: 0x8, addend: 0x0, symName: __ZN3mlc3ffi7details16FuncCallUnpackedIPFNSt3__112basic_stringIcNS3_11char_traitsIcEENS3_9allocatorIcEEEEdEEEvPKNS0_7FuncObjEiPKNS0_7AnyViewEPNS0_3AnyE.cold.1, symObjAddr: 0x24D64, symBinAddr: 0x50600, symSize: 0x40 }
  - { offsetInCU: 0xC4FC2, offset: 0xC4FC2, size: 0x8, addend: 0x0, symName: __ZN3mlc3ffi7details22DefaultObjectAllocatorINS1_8FuncImplIPFNSt3__112basic_stringIcNS4_11char_traitsIcEENS4_9allocatorIcEEEEdEEEvE7DeleterEPv, symObjAddr: 0x1F720, symBinAddr: 0x24B38, symSize: 0xC }
  - { offsetInCU: 0xC4FF1, offset: 0xC4FF1, size: 0x8, addend: 0x0, symName: __ZN3mlc3ffi7details8Func2StrINSt3__112basic_stringIcNS3_11char_traitsIcEENS3_9allocatorIcEEEEJdEE5ApplyILm0EEEvRNS3_13basic_ostreamIcS6_EE, symObjAddr: 0x1F8EC, symBinAddr: 0x24D04, symSize: 0x8C }
  - { offsetInCU: 0xC55DB, offset: 0xC55DB, size: 0x8, addend: 0x0, symName: __ZNK3mlc3ffi7AnyView4CastI8DLDeviceEET_v, symObjAddr: 0x20294, symBinAddr: 0x256AC, symSize: 0x2FC }
  - { offsetInCU: 0xC63E1, offset: 0xC63E1, size: 0x8, addend: 0x0, symName: __ZN3mlc3ffi7details8Func2StrINSt3__112basic_stringIcNS3_11char_traitsIcEENS3_9allocatorIcEEEEJ8DLDeviceEE3RunIJLm0EEEES9_NS3_16integer_sequenceImJXspT_EEEE, symObjAddr: 0x20044, symBinAddr: 0x2545C, symSize: 0x1C0 }
  - { offsetInCU: 0xC6B6A, offset: 0xC6B6A, size: 0x8, addend: 0x0, symName: __ZN3mlc3ffi7details16FuncCallUnpackedIPFNSt3__112basic_stringIcNS3_11char_traitsIcEENS3_9allocatorIcEEEE8DLDeviceEEEvPKNS0_7FuncObjEiPKNS0_7AnyViewEPNS0_3AnyE.cold.1, symObjAddr: 0x24DA4, symBinAddr: 0x50640, symSize: 0x40 }
  - { offsetInCU: 0xC6BB6, offset: 0xC6BB6, size: 0x8, addend: 0x0, symName: __ZN3mlc3ffi7details22DefaultObjectAllocatorINS1_8FuncImplIPFNSt3__112basic_stringIcNS4_11char_traitsIcEENS4_9allocatorIcEEEE8DLDeviceEEEvE7DeleterEPv, symObjAddr: 0x20038, symBinAddr: 0x25450, symSize: 0xC }
  - { offsetInCU: 0xC6BE5, offset: 0xC6BE5, size: 0x8, addend: 0x0, symName: __ZN3mlc3ffi7details8Func2StrINSt3__112basic_stringIcNS3_11char_traitsIcEENS3_9allocatorIcEEEEJ8DLDeviceEE5ApplyILm0EEEvRNS3_13basic_ostreamIcS6_EE, symObjAddr: 0x20204, symBinAddr: 0x2561C, symSize: 0x90 }
  - { offsetInCU: 0xC729D, offset: 0xC729D, size: 0x8, addend: 0x0, symName: __ZNSt3__112__hash_tableINS_17__hash_value_typeINS_12basic_stringIcNS_11char_traitsIcEENS_9allocatorIcEEEE12DLDeviceTypeEENS_22__unordered_map_hasherIS7_S9_NS_4hashIS7_EENS_8equal_toIS7_EELb1EEENS_21__unordered_map_equalIS7_S9_SE_SC_Lb1EEENS5_IS9_EEE4findIS7_EENS_15__hash_iteratorIPNS_11__hash_nodeIS9_PvEEEERKT_, symObjAddr: 0x208F4, symBinAddr: 0x25D0C, symSize: 0x184 }
  - { offsetInCU: 0xC7593, offset: 0xC7593, size: 0x8, addend: 0x0, symName: __ZNKSt3__112basic_stringIcNS_11char_traitsIcEENS_9allocatorIcEEE6substrB8ue170006Emm, symObjAddr: 0x20828, symBinAddr: 0x25C40, symSize: 0xCC }
  - { offsetInCU: 0xC7989, offset: 0xC7989, size: 0x8, addend: 0x0, symName: __ZNSt3__112__hash_tableINS_17__hash_value_typeINS_12basic_stringIcNS_11char_traitsIcEENS_9allocatorIcEEEE12DLDeviceTypeEENS_22__unordered_map_hasherIS7_S9_NS_4hashIS7_EENS_8equal_toIS7_EELb1EEENS_21__unordered_map_equalIS7_S9_SE_SC_Lb1EEENS5_IS9_EEE4findIS7_EENS_15__hash_iteratorIPNS_11__hash_nodeIS9_PvEEEERKT_, symObjAddr: 0x208F4, symBinAddr: 0x25D0C, symSize: 0x184 }
  - { offsetInCU: 0xC799B, offset: 0xC799B, size: 0x8, addend: 0x0, symName: __ZNKSt3__112basic_stringIcNS_11char_traitsIcEENS_9allocatorIcEEE20__throw_out_of_rangeB8ue170006Ev, symObjAddr: 0x20A78, symBinAddr: 0x25E90, symSize: 0x14 }
  - { offsetInCU: 0xC79C4, offset: 0xC79C4, size: 0x8, addend: 0x0, symName: '__ZN3mlc3ffi7details16FuncCallUnpackedINS0_8registry8_POD_REG3$_0EEEvPKNS0_7FuncObjEiPKNS0_7AnyViewEPNS0_3AnyE', symObjAddr: 0x20A8C, symBinAddr: 0x25EA4, symSize: 0x438 }
  - { offsetInCU: 0xC7AA5, offset: 0xC7AA5, size: 0x8, addend: 0x0, symName: __ZN3mlc3ffi7details8Func2StrI8DLDeviceJNS0_7AnyViewEEE3RunIJLm0EEEENSt3__112basic_stringIcNS7_11char_traitsIcEENS7_9allocatorIcEEEENS7_16integer_sequenceImJXspT_EEEE, symObjAddr: 0x20ED0, symBinAddr: 0x262E8, symSize: 0x1CC }
  - { offsetInCU: 0xC8243, offset: 0xC8243, size: 0x8, addend: 0x0, symName: '__ZN3mlc3ffi7details22DefaultObjectAllocatorINS1_8FuncImplINS0_8registry8_POD_REG3$_0EEEvE7DeleterEPv', symObjAddr: 0x20EC4, symBinAddr: 0x262DC, symSize: 0xC }
  - { offsetInCU: 0xC8272, offset: 0xC8272, size: 0x8, addend: 0x0, symName: __ZN3mlc3ffi7details8Func2StrI8DLDeviceJNS0_7AnyViewEEE5ApplyILm0EEEvRNSt3__113basic_ostreamIcNS7_11char_traitsIcEEEE, symObjAddr: 0x2109C, symBinAddr: 0x264B4, symSize: 0x94 }
  - { offsetInCU: 0xC8802, offset: 0xC8802, size: 0x8, addend: 0x0, symName: __ZNK3mlc3ffi7AnyView4CastI10DLDataTypeEET_v, symObjAddr: 0x21890, symBinAddr: 0x26CA8, symSize: 0x2F8 }
  - { offsetInCU: 0xC95F3, offset: 0xC95F3, size: 0x8, addend: 0x0, symName: __ZN3mlc3ffi7details8Func2StrINSt3__112basic_stringIcNS3_11char_traitsIcEENS3_9allocatorIcEEEEJ10DLDataTypeEE3RunIJLm0EEEES9_NS3_16integer_sequenceImJXspT_EEEE, symObjAddr: 0x21644, symBinAddr: 0x26A5C, symSize: 0x1C0 }
  - { offsetInCU: 0xC9D7C, offset: 0xC9D7C, size: 0x8, addend: 0x0, symName: __ZN3mlc3ffi7details16FuncCallUnpackedIPFNSt3__112basic_stringIcNS3_11char_traitsIcEENS3_9allocatorIcEEEE10DLDataTypeEEEvPKNS0_7FuncObjEiPKNS0_7AnyViewEPNS0_3AnyE.cold.1, symObjAddr: 0x24DE4, symBinAddr: 0x50680, symSize: 0x40 }
  - { offsetInCU: 0xC9DC8, offset: 0xC9DC8, size: 0x8, addend: 0x0, symName: __ZN3mlc3ffi7details22DefaultObjectAllocatorINS1_8FuncImplIPFNSt3__112basic_stringIcNS4_11char_traitsIcEENS4_9allocatorIcEEEE10DLDataTypeEEEvE7DeleterEPv, symObjAddr: 0x21638, symBinAddr: 0x26A50, symSize: 0xC }
  - { offsetInCU: 0xC9DF7, offset: 0xC9DF7, size: 0x8, addend: 0x0, symName: __ZN3mlc3ffi7details8Func2StrINSt3__112basic_stringIcNS3_11char_traitsIcEENS3_9allocatorIcEEEEJ10DLDataTypeEE5ApplyILm0EEEvRNS3_13basic_ostreamIcS6_EE, symObjAddr: 0x21804, symBinAddr: 0x26C1C, symSize: 0x8C }
  - { offsetInCU: 0xCA47D, offset: 0xCA47D, size: 0x8, addend: 0x0, symName: __ZNSt3__112__hash_tableINS_17__hash_value_typeINS_12basic_stringIcNS_11char_traitsIcEENS_9allocatorIcEEEE10DLDataTypeEENS_22__unordered_map_hasherIS7_S9_NS_4hashIS7_EENS_8equal_toIS7_EELb1EEENS_21__unordered_map_equalIS7_S9_SE_SC_Lb1EEENS5_IS9_EEE4findIS7_EENS_15__hash_iteratorIPNS_11__hash_nodeIS9_PvEEEERKT_, symObjAddr: 0x22358, symBinAddr: 0x27770, symSize: 0x184 }
  - { offsetInCU: 0xCA936, offset: 0xCA936, size: 0x8, addend: 0x0, symName: __ZN3mlc3ffi7details8Func2StrI10DLDataTypeJNS0_7AnyViewEEE3RunIJLm0EEEENSt3__112basic_stringIcNS7_11char_traitsIcEENS7_9allocatorIcEEEENS7_16integer_sequenceImJXspT_EEEE, symObjAddr: 0x22920, symBinAddr: 0x27D38, symSize: 0x1D0 }
  - { offsetInCU: 0xCB0BF, offset: 0xCB0BF, size: 0x8, addend: 0x0, symName: '__ZN3mlc3ffi7details22DefaultObjectAllocatorINS1_8FuncImplINS0_8registry8_POD_REG3$_1EEEvE7DeleterEPv', symObjAddr: 0x22914, symBinAddr: 0x27D2C, symSize: 0xC }
  - { offsetInCU: 0xCB0EE, offset: 0xCB0EE, size: 0x8, addend: 0x0, symName: __ZN3mlc3ffi7details8Func2StrI10DLDataTypeJNS0_7AnyViewEEE5ApplyILm0EEEvRNSt3__113basic_ostreamIcNS7_11char_traitsIcEEEE, symObjAddr: 0x22AF0, symBinAddr: 0x27F08, symSize: 0x94 }
  - { offsetInCU: 0xCB677, offset: 0xCB677, size: 0x8, addend: 0x0, symName: __ZNK3mlc3ffi7AnyView4CastIPKcEET_v, symObjAddr: 0x232F8, symBinAddr: 0x28710, symSize: 0x1C8 }
  - { offsetInCU: 0xCBE0D, offset: 0xCBE0D, size: 0x8, addend: 0x0, symName: __ZN3mlc3ffi7details8Func2StrINSt3__112basic_stringIcNS3_11char_traitsIcEENS3_9allocatorIcEEEEJPKcEE3RunIJLm0EEEES9_NS3_16integer_sequenceImJXspT_EEEE, symObjAddr: 0x230A0, symBinAddr: 0x284B8, symSize: 0x1C0 }
  - { offsetInCU: 0xCC596, offset: 0xCC596, size: 0x8, addend: 0x0, symName: __ZN3mlc3ffi7details16FuncCallUnpackedIPFNSt3__112basic_stringIcNS3_11char_traitsIcEENS3_9allocatorIcEEEEPKcEEEvPKNS0_7FuncObjEiPKNS0_7AnyViewEPNS0_3AnyE.cold.1, symObjAddr: 0x24E24, symBinAddr: 0x506C0, symSize: 0x40 }
  - { offsetInCU: 0xCC5E2, offset: 0xCC5E2, size: 0x8, addend: 0x0, symName: __ZN3mlc3ffi7details22DefaultObjectAllocatorINS1_8FuncImplIPFNSt3__112basic_stringIcNS4_11char_traitsIcEENS4_9allocatorIcEEEEPKcEEEvE7DeleterEPv, symObjAddr: 0x23094, symBinAddr: 0x284AC, symSize: 0xC }
  - { offsetInCU: 0xCC611, offset: 0xCC611, size: 0x8, addend: 0x0, symName: __ZN3mlc3ffi7details8Func2StrINSt3__112basic_stringIcNS3_11char_traitsIcEENS3_9allocatorIcEEEEJPKcEE5ApplyILm0EEEvRNS3_13basic_ostreamIcS6_EE, symObjAddr: 0x23260, symBinAddr: 0x28678, symSize: 0x98 }
  - { offsetInCU: 0xCCC8B, offset: 0xCCC8B, size: 0x8, addend: 0x0, symName: __ZNK3mlc3ffi7AnyView4CastINSt3__112basic_stringIcNS3_11char_traitsIcEENS3_9allocatorIcEEEEEET_v, symObjAddr: 0x245AC, symBinAddr: 0x299C4, symSize: 0x164 }
  - { offsetInCU: 0xCD357, offset: 0xCD357, size: 0x8, addend: 0x0, symName: __ZN3mlc3ffi8registry9TypeTable7LoadDSOENSt3__112basic_stringIcNS3_11char_traitsIcEENS3_9allocatorIcEEEE, symObjAddr: 0x23C94, symBinAddr: 0x290AC, symSize: 0xB0 }
  - { offsetInCU: 0xCD5B1, offset: 0xCD5B1, size: 0x8, addend: 0x0, symName: __ZN3mlc3ffi7details8Func2StrIvJNSt3__112basic_stringIcNS3_11char_traitsIcEENS3_9allocatorIcEEEEEE3RunIJLm0EEEES9_NS3_16integer_sequenceImJXspT_EEEE, symObjAddr: 0x23A4C, symBinAddr: 0x28E64, symSize: 0x1C4 }
  - { offsetInCU: 0xCDD4F, offset: 0xCDD4F, size: 0x8, addend: 0x0, symName: '__ZN3mlc3ffi7details16FuncCallUnpackedIN12_GLOBAL__N_13$_2EEEvPKNS0_7FuncObjEiPKNS0_7AnyViewEPNS0_3AnyE.cold.1', symObjAddr: 0x24E64, symBinAddr: 0x50700, symSize: 0x40 }
  - { offsetInCU: 0xCDD9B, offset: 0xCDD9B, size: 0x8, addend: 0x0, symName: '__ZN3mlc3ffi7details22DefaultObjectAllocatorINS1_8FuncImplIN12_GLOBAL__N_13$_2EEEvE7DeleterEPv', symObjAddr: 0x23A40, symBinAddr: 0x28E58, symSize: 0xC }
  - { offsetInCU: 0xCDDD1, offset: 0xCDDD1, size: 0x8, addend: 0x0, symName: __ZN3mlc3ffi7details8Func2StrIvJNSt3__112basic_stringIcNS3_11char_traitsIcEENS3_9allocatorIcEEEEEE5ApplyILm0EEEvRNS3_13basic_ostreamIcS6_EE, symObjAddr: 0x23C10, symBinAddr: 0x29028, symSize: 0x84 }
  - { offsetInCU: 0xCE33D, offset: 0xCE33D, size: 0x8, addend: 0x0, symName: __ZNSt3__112__hash_tableINS_17__hash_value_typeINS_12basic_stringIcNS_11char_traitsIcEENS_9allocatorIcEEEENS_10unique_ptrIN3mlc3ffi10DSOLibraryENS_14default_deleteISB_EEEEEENS_22__unordered_map_hasherIS7_SF_NS_4hashIS7_EENS_8equal_toIS7_EELb1EEENS_21__unordered_map_equalIS7_SF_SK_SI_Lb1EEENS5_ISF_EEE25__emplace_unique_key_argsIS7_JRKNS_21piecewise_construct_tENS_5tupleIJRKS7_EEENSU_IJODnEEEEEENS_4pairINS_15__hash_iteratorIPNS_11__hash_nodeISF_PvEEEEbEERKT_DpOT0_, symObjAddr: 0x23E48, symBinAddr: 0x29260, symSize: 0x3B4 }
  - { offsetInCU: 0xCEB26, offset: 0xCEB26, size: 0x8, addend: 0x0, symName: __ZN3mlc3ffi10DSOLibraryC2ENSt3__112basic_stringIcNS2_11char_traitsIcEENS2_9allocatorIcEEEE, symObjAddr: 0x244B0, symBinAddr: 0x298C8, symSize: 0xFC }
  - { offsetInCU: 0xCEF41, offset: 0xCEF41, size: 0x8, addend: 0x0, symName: __ZNSt3__112__hash_tableINS_17__hash_value_typeINS_12basic_stringIcNS_11char_traitsIcEENS_9allocatorIcEEEENS_10unique_ptrIN3mlc3ffi10DSOLibraryENS_14default_deleteISB_EEEEEENS_22__unordered_map_hasherIS7_SF_NS_4hashIS7_EENS_8equal_toIS7_EELb1EEENS_21__unordered_map_equalIS7_SF_SK_SI_Lb1EEENS5_ISF_EEE21__construct_node_hashIRKNS_21piecewise_construct_tEJNS_5tupleIJRKS7_EEENSU_IJODnEEEEEENS8_INS_11__hash_nodeISF_PvEENS_22__hash_node_destructorINS5_IS12_EEEEEEmOT_DpOT0_, symObjAddr: 0x241FC, symBinAddr: 0x29614, symSize: 0xE8 }
  - { offsetInCU: 0xCF647, offset: 0xCF647, size: 0x8, addend: 0x0, symName: __ZNSt3__112__hash_tableINS_17__hash_value_typeINS_12basic_stringIcNS_11char_traitsIcEENS_9allocatorIcEEEENS_10unique_ptrIN3mlc3ffi10DSOLibraryENS_14default_deleteISB_EEEEEENS_22__unordered_map_hasherIS7_SF_NS_4hashIS7_EENS_8equal_toIS7_EELb1EEENS_21__unordered_map_equalIS7_SF_SK_SI_Lb1EEENS5_ISF_EEE11__do_rehashILb1EEEvm, symObjAddr: 0x242E4, symBinAddr: 0x296FC, symSize: 0x15C }
  - { offsetInCU: 0xCFAC3, offset: 0xCFAC3, size: 0x8, addend: 0x0, symName: __ZNSt3__110unique_ptrINS_11__hash_nodeINS_17__hash_value_typeINS_12basic_stringIcNS_11char_traitsIcEENS_9allocatorIcEEEENS0_IN3mlc3ffi10DSOLibraryENS_14default_deleteISB_EEEEEEPvEENS_22__hash_node_destructorINS6_ISH_EEEEE5resetB8ue170006EPSH_, symObjAddr: 0x24440, symBinAddr: 0x29858, symSize: 0x70 }
  - { offsetInCU: 0xCFAD8, offset: 0xCFAD8, size: 0x8, addend: 0x0, symName: __ZNSt3__110unique_ptrINS_11__hash_nodeINS_17__hash_value_typeINS_12basic_stringIcNS_11char_traitsIcEENS_9allocatorIcEEEENS0_IN3mlc3ffi10DSOLibraryENS_14default_deleteISB_EEEEEEPvEENS_22__hash_node_destructorINS6_ISH_EEEEE5resetB8ue170006EPSH_, symObjAddr: 0x24440, symBinAddr: 0x29858, symSize: 0x70 }
  - { offsetInCU: 0xD0425, offset: 0xD0425, size: 0x8, addend: 0x0, symName: __ZN3mlc3ffi9PODTraitsINSt3__112basic_stringIcNS2_11char_traitsIcEENS2_9allocatorIcEEEEvE13AnyCopyToTypeEPK6MLCAny, symObjAddr: 0x24710, symBinAddr: 0x29B28, symSize: 0xDC }
  - { offsetInCU: 0xD081D, offset: 0xD081D, size: 0x8, addend: 0x0, symName: _OUTLINED_FUNCTION_0, symObjAddr: 0x24EA4, symBinAddr: 0x29C04, symSize: 0x8 }
  - { offsetInCU: 0xD0835, offset: 0xD0835, size: 0x8, addend: 0x0, symName: _OUTLINED_FUNCTION_1, symObjAddr: 0x24EAC, symBinAddr: 0x29C0C, symSize: 0x10 }
  - { offsetInCU: 0xD084D, offset: 0xD084D, size: 0x8, addend: 0x0, symName: _OUTLINED_FUNCTION_2, symObjAddr: 0x24EBC, symBinAddr: 0x29C1C, symSize: 0x8 }
  - { offsetInCU: 0xD0865, offset: 0xD0865, size: 0x8, addend: 0x0, symName: _OUTLINED_FUNCTION_3, symObjAddr: 0x24EC4, symBinAddr: 0x29C24, symSize: 0x8 }
  - { offsetInCU: 0xD087D, offset: 0xD087D, size: 0x8, addend: 0x0, symName: _OUTLINED_FUNCTION_4, symObjAddr: 0x24ECC, symBinAddr: 0x29C2C, symSize: 0xC }
  - { offsetInCU: 0xD0895, offset: 0xD0895, size: 0x8, addend: 0x0, symName: _OUTLINED_FUNCTION_5, symObjAddr: 0x24ED8, symBinAddr: 0x29C38, symSize: 0x8 }
  - { offsetInCU: 0xD08AD, offset: 0xD08AD, size: 0x8, addend: 0x0, symName: _OUTLINED_FUNCTION_6, symObjAddr: 0x24EE0, symBinAddr: 0x29C40, symSize: 0x8 }
  - { offsetInCU: 0xD08C5, offset: 0xD08C5, size: 0x8, addend: 0x0, symName: _OUTLINED_FUNCTION_7, symObjAddr: 0x24EE8, symBinAddr: 0x29C48, symSize: 0x8 }
  - { offsetInCU: 0xD08DD, offset: 0xD08DD, size: 0x8, addend: 0x0, symName: _OUTLINED_FUNCTION_8, symObjAddr: 0x24EF0, symBinAddr: 0x29C50, symSize: 0x8 }
  - { offsetInCU: 0xD08F5, offset: 0xD08F5, size: 0x8, addend: 0x0, symName: _OUTLINED_FUNCTION_9, symObjAddr: 0x24EF8, symBinAddr: 0x29C58, symSize: 0x8 }
  - { offsetInCU: 0xD090D, offset: 0xD090D, size: 0x8, addend: 0x0, symName: _OUTLINED_FUNCTION_10, symObjAddr: 0x24F00, symBinAddr: 0x29C60, symSize: 0xC }
  - { offsetInCU: 0x39CB, offset: 0xD4394, size: 0x8, addend: 0x0, symName: '__ZN3mlc3ffi7details16FuncCallUnpackedINS0_3$_1EEEvPKNS0_7FuncObjEiPKNS0_7AnyViewEPNS0_3AnyE', symObjAddr: 0x122F8, symBinAddr: 0x2DDE8, symSize: 0x15C }
  - { offsetInCU: 0x3E91, offset: 0xD485A, size: 0x8, addend: 0x0, symName: '__ZN3mlc3ffi7details16FuncCallUnpackedINS0_3$_2EEEvPKNS0_7FuncObjEiPKNS0_7AnyViewEPNS0_3AnyE', symObjAddr: 0x1261C, symBinAddr: 0x2E10C, symSize: 0x15C }
  - { offsetInCU: 0x4386, offset: 0xD4D4F, size: 0x8, addend: 0x0, symName: '__ZN3mlc3ffi7details16FuncCallUnpackedINS0_3$_3EEEvPKNS0_7FuncObjEiPKNS0_7AnyViewEPNS0_3AnyE', symObjAddr: 0x1293C, symBinAddr: 0x2E42C, symSize: 0x454 }
  - { offsetInCU: 0x556C, offset: 0xD5F35, size: 0x8, addend: 0x0, symName: '__ZN3mlc3ffi7details16FuncCallUnpackedINS0_3$_4EEEvPKNS0_7FuncObjEiPKNS0_7AnyViewEPNS0_3AnyE', symObjAddr: 0x1317C, symBinAddr: 0x2EC6C, symSize: 0x454 }
  - { offsetInCU: 0x66CD, offset: 0xD7096, size: 0x8, addend: 0x0, symName: '__ZN3mlc3ffi7details16FuncCallUnpackedINS0_3$_5EEEvPKNS0_7FuncObjEiPKNS0_7AnyViewEPNS0_3AnyE', symObjAddr: 0x139F0, symBinAddr: 0x2F328, symSize: 0x458 }
  - { offsetInCU: 0x78B3, offset: 0xD827C, size: 0x8, addend: 0x0, symName: '__ZN3mlc3ffi7details16FuncCallUnpackedINS0_3$_6EEEvPKNS0_7FuncObjEiPKNS0_7AnyViewEPNS0_3AnyE', symObjAddr: 0x14248, symBinAddr: 0x2F9D0, symSize: 0x45C }
  - { offsetInCU: 0x8A99, offset: 0xD9462, size: 0x8, addend: 0x0, symName: '__ZN3mlc3ffi7details16FuncCallUnpackedINS0_3$_7EEEvPKNS0_7FuncObjEiPKNS0_7AnyViewEPNS0_3AnyE', symObjAddr: 0x156AC, symBinAddr: 0x30094, symSize: 0x460 }
  - { offsetInCU: 0x9C0F, offset: 0xDA5D8, size: 0x8, addend: 0x0, symName: '__ZN3mlc3ffi7details16FuncCallUnpackedINS0_3$_8EEEvPKNS0_7FuncObjEiPKNS0_7AnyViewEPNS0_3AnyE', symObjAddr: 0x1648C, symBinAddr: 0x3075C, symSize: 0x4CC }
  - { offsetInCU: 0xAFA0, offset: 0xDB969, size: 0x8, addend: 0x0, symName: __ZN3mlc3ffi7details16FuncCallUnpackedIPFNS0_3RefINS0_6ObjectEEEONSt3__112basic_stringIcNS6_11char_traitsIcEENS6_9allocatorIcEEEEOiEEEvPKNS0_7FuncObjEiPKNS0_7AnyViewEPNS0_3AnyE, symObjAddr: 0x17464, symBinAddr: 0x31490, symSize: 0x7C0 }
  - { offsetInCU: 0xD1EA, offset: 0xDDBB3, size: 0x8, addend: 0x0, symName: __ZN3mlc3ffi7details16FuncCallUnpackedIZNS1_17FuncAllocatorImplIMNS0_17ReflectionTestObjEFivEvE3RunES6_EUlPS4_E_EEvPKNS0_7FuncObjEiPKNS0_7AnyViewEPNS0_3AnyE, symObjAddr: 0x180C8, symBinAddr: 0x31F90, symSize: 0x484 }
  - { offsetInCU: 0xE279, offset: 0xDEC42, size: 0x8, addend: 0x0, symName: '__ZN3mlc3ffi7details16FuncCallUnpackedINS0_3$_9EEEvPKNS0_7FuncObjEiPKNS0_7AnyViewEPNS0_3AnyE', symObjAddr: 0x18B44, symBinAddr: 0x32A0C, symSize: 0x248 }
  - { offsetInCU: 0xE877, offset: 0xDF240, size: 0x8, addend: 0x0, symName: '__ZN3mlc3ffi7details16FuncCallUnpackedINS0_4$_10EEEvPKNS0_7FuncObjEiPKNS0_7AnyViewEPNS0_3AnyE', symObjAddr: 0x18D98, symBinAddr: 0x32C60, symSize: 0xBD8 }
  - { offsetInCU: 0x10D54, offset: 0xE171D, size: 0x8, addend: 0x0, symName: '__ZN3mlc3ffi7details16FuncCallUnpackedINS0_4$_11EEEvPKNS0_7FuncObjEiPKNS0_7AnyViewEPNS0_3AnyE', symObjAddr: 0x19F48, symBinAddr: 0x33D70, symSize: 0xCB4 }
  - { offsetInCU: 0x1345F, offset: 0xE3E28, size: 0x8, addend: 0x0, symName: '__ZN3mlc3ffi7details16FuncCallUnpackedINS0_3$_0EEEvPKNS0_7FuncObjEiPKNS0_7AnyViewEPNS0_3AnyE', symObjAddr: 0x1AEC8, symBinAddr: 0x34CF0, symSize: 0x620 }
  - { offsetInCU: 0x149C3, offset: 0xE538C, size: 0x8, addend: 0x0, symName: '__ZN3mlc3ffi7details16FuncCallUnpackedIZNKS0_3$_0clENS0_3StrEEUlNS0_5UListEE_EEvPKNS0_7FuncObjEiPKNS0_7AnyViewEPNS0_3AnyE', symObjAddr: 0x1B75C, symBinAddr: 0x35584, symSize: 0x49C }
  - { offsetInCU: 0x15CD9, offset: 0xE66A2, size: 0x8, addend: 0x0, symName: '__ZN3mlc3ffi7details16FuncCallUnpackedIZNKS0_3$_0clENS0_3StrEEUlNS0_4ListINS0_3AnyEEEE_EEvPKNS0_7FuncObjEiPKNS0_7AnyViewEPS6_', symObjAddr: 0x1C300, symBinAddr: 0x36128, symSize: 0x4A4 }
  - { offsetInCU: 0x16EED, offset: 0xE78B6, size: 0x8, addend: 0x0, symName: '__ZN3mlc3ffi7details16FuncCallUnpackedIZNKS0_3$_0clENS0_3StrEEUlNS0_4ListINS5_IiEEEEE_EEvPKNS0_7FuncObjEiPKNS0_7AnyViewEPNS0_3AnyE', symObjAddr: 0x1F250, symBinAddr: 0x39078, symSize: 0x4A4 }
  - { offsetInCU: 0x18010, offset: 0xE89D9, size: 0x8, addend: 0x0, symName: '__ZN3mlc3ffi7details16FuncCallUnpackedIZNKS0_3$_0clENS0_3StrEEUlNS0_5UDictEE_EEvPKNS0_7FuncObjEiPKNS0_7AnyViewEPNS0_3AnyE', symObjAddr: 0x207D4, symBinAddr: 0x3A5FC, symSize: 0x4A0 }
  - { offsetInCU: 0x19305, offset: 0xE9CCE, size: 0x8, addend: 0x0, symName: '__ZN3mlc3ffi7details16FuncCallUnpackedIZNKS0_3$_0clENS0_3StrEEUlNS0_4DictIS4_NS0_3AnyEEEE_EEvPKNS0_7FuncObjEiPKNS0_7AnyViewEPS6_', symObjAddr: 0x21334, symBinAddr: 0x3B15C, symSize: 0x4A4 }
  - { offsetInCU: 0x1A428, offset: 0xEADF1, size: 0x8, addend: 0x0, symName: '__ZN3mlc3ffi7details16FuncCallUnpackedIZNKS0_3$_0clENS0_3StrEEUlNS0_4DictINS0_3AnyES4_EEE_EEvPKNS0_7FuncObjEiPKNS0_7AnyViewEPS6_', symObjAddr: 0x22B8C, symBinAddr: 0x3C9B4, symSize: 0x4A4 }
  - { offsetInCU: 0x1B54B, offset: 0xEBF14, size: 0x8, addend: 0x0, symName: '__ZN3mlc3ffi7details16FuncCallUnpackedIZNKS0_3$_0clENS0_3StrEEUlNS0_4DictINS0_3AnyES6_EEE_EEvPKNS0_7FuncObjEiPKNS0_7AnyViewEPS6_', symObjAddr: 0x23EF8, symBinAddr: 0x3DD20, symSize: 0x4A4 }
  - { offsetInCU: 0x1C66E, offset: 0xED037, size: 0x8, addend: 0x0, symName: '__ZN3mlc3ffi7details16FuncCallUnpackedIZNKS0_3$_0clENS0_3StrEEUlNS0_4DictIS4_NS0_4ListIiEEEEE_EEvPKNS0_7FuncObjEiPKNS0_7AnyViewEPNS0_3AnyE', symObjAddr: 0x24FC0, symBinAddr: 0x3EDE8, symSize: 0x4A4 }
  - { offsetInCU: 0x22E00, offset: 0xF37C9, size: 0x8, addend: 0x0, symName: __ZN3mlc3ffi6InitOfINS0_17ReflectionTestObjEJNSt3__112basic_stringIcNS3_11char_traitsIcEENS3_9allocatorIcEEEEiEEENS0_3RefINS0_6ObjectEEEDpOT0_, symObjAddr: 0x5C28, symBinAddr: 0x2D880, symSize: 0x154 }
  - { offsetInCU: 0x3587B, offset: 0x106244, size: 0x8, addend: 0x0, symName: __ZN3mlc3ffi17ReflectionTestObj10_type_infoE, symObjAddr: 0x2EE50, symBinAddr: 0x684D0, symSize: 0x0 }
  - { offsetInCU: 0x3589D, offset: 0x106266, size: 0x8, addend: 0x0, symName: __ZN3mlc3ffi17ReflectionTestObj13_type_reflectE, symObjAddr: 0x2EE60, symBinAddr: 0x684E0, symSize: 0x0 }
  - { offsetInCU: 0x358B0, offset: 0x106279, size: 0x8, addend: 0x0, symName: __ZN3mlc3ffi14ReflectionTest13_type_reflectE, symObjAddr: 0x2EE74, symBinAddr: 0x684F4, symSize: 0x0 }
  - { offsetInCU: 0x35931, offset: 0x1062FA, size: 0x8, addend: 0x0, symName: __ZN3mlc3ffi17ReflectionTestObj11_type_indexE, symObjAddr: 0x2EE70, symBinAddr: 0x684F0, symSize: 0x0 }
  - { offsetInCU: 0x3DC1D, offset: 0x10E5E6, size: 0x8, addend: 0x0, symName: __ZN3mlc3ffi7details16ReflectionHelper6MethodIRFNS0_3RefINS0_6ObjectEEEONSt3__112basic_stringIcNS7_11char_traitsIcEENS7_9allocatorIcEEEEOiEEERS2_PKcOT_, symObjAddr: 0x58F8, symBinAddr: 0x2D550, symSize: 0x330 }
  - { offsetInCU: 0x3E826, offset: 0x10F1EF, size: 0x8, addend: 0x0, symName: __ZN3mlc3ffi7details16ReflectionHelper6MethodIMNS0_17ReflectionTestObjEFivEEERS2_PKcOT_, symObjAddr: 0x5D7C, symBinAddr: 0x2D9D4, symSize: 0x334 }
  - { offsetInCU: 0x3F80C, offset: 0x1101D5, size: 0x8, addend: 0x0, symName: __ZN3mlc3ffi17ReflectionTestObj8YPlusOneEv, symObjAddr: 0x60B0, symBinAddr: 0x2DD08, symSize: 0xC }
  - { offsetInCU: 0x3F895, offset: 0x11025E, size: 0x8, addend: 0x0, symName: __ZNSt3__119basic_ostringstreamIcNS_11char_traitsIcEENS_9allocatorIcEEEC1B8ue170006Ev, symObjAddr: 0x6218, symBinAddr: 0x2DD14, symSize: 0xD4 }
  - { offsetInCU: 0x417ED, offset: 0x1121B6, size: 0x8, addend: 0x0, symName: __ZN3mlc3ffi7details16FuncCallUnpackedIZNS1_17FuncAllocatorImplIMNS0_8ErrorObjEKFNSt3__112basic_stringIcNS5_11char_traitsIcEENS5_9allocatorIcEEEEvEvE3RunESD_EUlPKS4_E_EEvPKNS0_7FuncObjEiPKNS0_7AnyViewEPNS0_3AnyE.cold.1, symObjAddr: 0x266F4, symBinAddr: 0x507C0, symSize: 0x40 }
  - { offsetInCU: 0x418E8, offset: 0x1122B1, size: 0x8, addend: 0x0, symName: __ZN3mlc3ffi7details16FuncCallUnpackedIZNS1_17FuncAllocatorImplIMNS0_8UDictObjEKFNSt3__112basic_stringIcNS5_11char_traitsIcEENS5_9allocatorIcEEEEvEvE3RunESD_EUlPKS4_E_EEvPKNS0_7FuncObjEiPKNS0_7AnyViewEPNS0_3AnyE.cold.1, symObjAddr: 0x26734, symBinAddr: 0x50800, symSize: 0x40 }
  - { offsetInCU: 0x427AF, offset: 0x113178, size: 0x8, addend: 0x0, symName: __ZN3mlc3ffi7details16FuncCallUnpackedIPFNS0_3AnyEPNS0_8UDictObjES3_EEEvPKNS0_7FuncObjEiPKNS0_7AnyViewEPS3_.cold.1, symObjAddr: 0x26774, symBinAddr: 0x50840, symSize: 0x40 }
  - { offsetInCU: 0x42BB4, offset: 0x11357D, size: 0x8, addend: 0x0, symName: __ZN3mlc3ffi7details16FuncCallUnpackedIPFNS0_3AnyEPNS0_8UDictObjExEEEvPKNS0_7FuncObjEiPKNS0_7AnyViewEPS3_.cold.1, symObjAddr: 0x267B4, symBinAddr: 0x50880, symSize: 0x40 }
  - { offsetInCU: 0x42C00, offset: 0x1135C9, size: 0x8, addend: 0x0, symName: __ZN3mlc3ffi7details16FuncCallUnpackedIPFNS0_3AnyEPNS0_8UDictObjExEEEvPKNS0_7FuncObjEiPKNS0_7AnyViewEPS3_.cold.2, symObjAddr: 0x267F4, symBinAddr: 0x508C0, symSize: 0x40 }
  - { offsetInCU: 0x42CFD, offset: 0x1136C6, size: 0x8, addend: 0x0, symName: __ZN3mlc3ffi7details16FuncCallUnpackedIPFxPNS0_8UDictObjExEEEvPKNS0_7FuncObjEiPKNS0_7AnyViewEPNS0_3AnyE.cold.1, symObjAddr: 0x26834, symBinAddr: 0x50900, symSize: 0x40 }
  - { offsetInCU: 0x42D49, offset: 0x113712, size: 0x8, addend: 0x0, symName: __ZN3mlc3ffi7details16FuncCallUnpackedIPFxPNS0_8UDictObjExEEEvPKNS0_7FuncObjEiPKNS0_7AnyViewEPNS0_3AnyE.cold.2, symObjAddr: 0x26874, symBinAddr: 0x50940, symSize: 0x40 }
  - { offsetInCU: 0x42EAC, offset: 0x113875, size: 0x8, addend: 0x0, symName: __ZN3mlc3ffi7details16FuncCallUnpackedIZNS1_17FuncAllocatorImplIMNS0_6StrObjEKFNSt3__112basic_stringIcNS5_11char_traitsIcEENS5_9allocatorIcEEEEvEvE3RunESD_EUlPKS4_E_EEvPKNS0_7FuncObjEiPKNS0_7AnyViewEPNS0_3AnyE.cold.1, symObjAddr: 0x268B4, symBinAddr: 0x50980, symSize: 0x40 }
  - { offsetInCU: 0x42F7F, offset: 0x113948, size: 0x8, addend: 0x0, symName: __ZN3mlc3ffi7details16FuncCallUnpackedIZNS1_17FuncAllocatorImplIMNS0_8UListObjEKFNSt3__112basic_stringIcNS5_11char_traitsIcEENS5_9allocatorIcEEEEvEvE3RunESD_EUlPKS4_E_EEvPKNS0_7FuncObjEiPKNS0_7AnyViewEPNS0_3AnyE.cold.1, symObjAddr: 0x268F4, symBinAddr: 0x509C0, symSize: 0x40 }
  - { offsetInCU: 0x430A3, offset: 0x113A6C, size: 0x8, addend: 0x0, symName: __ZN3mlc3ffi7details16FuncCallUnpackedIPFNS0_3AnyEPNS0_8UListObjExEEEvPKNS0_7FuncObjEiPKNS0_7AnyViewEPS3_.cold.1, symObjAddr: 0x26934, symBinAddr: 0x50A00, symSize: 0x40 }
  - { offsetInCU: 0x430EF, offset: 0x113AB8, size: 0x8, addend: 0x0, symName: __ZN3mlc3ffi7details16FuncCallUnpackedIPFNS0_3AnyEPNS0_8UListObjExEEEvPKNS0_7FuncObjEiPKNS0_7AnyViewEPS3_.cold.2, symObjAddr: 0x26974, symBinAddr: 0x50A40, symSize: 0x40 }
  - { offsetInCU: 0x43495, offset: 0x113E5E, size: 0x8, addend: 0x0, symName: __ZN3mlc3ffi7details8Func2StrIvJEE3RunIJEEENSt3__112basic_stringIcNS5_11char_traitsIcEENS5_9allocatorIcEEEENS5_16integer_sequenceImJXspT_EEEE, symObjAddr: 0x12460, symBinAddr: 0x2DF50, symSize: 0x1BC }
  - { offsetInCU: 0x43C18, offset: 0x1145E1, size: 0x8, addend: 0x0, symName: '__ZN3mlc3ffi7details22DefaultObjectAllocatorINS1_8FuncImplINS0_3$_1EEEvE7DeleterEPv', symObjAddr: 0x12454, symBinAddr: 0x2DF44, symSize: 0xC }
  - { offsetInCU: 0x43CD2, offset: 0x11469B, size: 0x8, addend: 0x0, symName: __ZN3mlc3ffi7details8Func2StrIPvJEE3RunIJEEENSt3__112basic_stringIcNS6_11char_traitsIcEENS6_9allocatorIcEEEENS6_16integer_sequenceImJXspT_EEEE, symObjAddr: 0x12784, symBinAddr: 0x2E274, symSize: 0x1B8 }
  - { offsetInCU: 0x44440, offset: 0x114E09, size: 0x8, addend: 0x0, symName: '__ZN3mlc3ffi7details22DefaultObjectAllocatorINS1_8FuncImplINS0_3$_2EEEvE7DeleterEPv', symObjAddr: 0x12778, symBinAddr: 0x2E268, symSize: 0xC }
  - { offsetInCU: 0x4464A, offset: 0x115013, size: 0x8, addend: 0x0, symName: __ZNK3mlc3ffi7AnyView4CastIiEET_v, symObjAddr: 0x12FE0, symBinAddr: 0x2EAD0, symSize: 0x19C }
  - { offsetInCU: 0x44D52, offset: 0x11571B, size: 0x8, addend: 0x0, symName: __ZN3mlc3ffi7details8Func2StrIiJiEE3RunIJLm0EEEENSt3__112basic_stringIcNS5_11char_traitsIcEENS5_9allocatorIcEEEENS5_16integer_sequenceImJXspT_EEEE, symObjAddr: 0x12D9C, symBinAddr: 0x2E88C, symSize: 0x1C0 }
  - { offsetInCU: 0x454DB, offset: 0x115EA4, size: 0x8, addend: 0x0, symName: '__ZN3mlc3ffi7details16FuncCallUnpackedINS0_3$_3EEEvPKNS0_7FuncObjEiPKNS0_7AnyViewEPNS0_3AnyE.cold.1', symObjAddr: 0x269B4, symBinAddr: 0x50A80, symSize: 0x40 }
  - { offsetInCU: 0x45527, offset: 0x115EF0, size: 0x8, addend: 0x0, symName: '__ZN3mlc3ffi7details22DefaultObjectAllocatorINS1_8FuncImplINS0_3$_3EEEvE7DeleterEPv', symObjAddr: 0x12D90, symBinAddr: 0x2E880, symSize: 0xC }
  - { offsetInCU: 0x45556, offset: 0x115F1F, size: 0x8, addend: 0x0, symName: __ZN3mlc3ffi7details8Func2StrIiJiEE5ApplyILm0EEEvRNSt3__113basic_ostreamIcNS5_11char_traitsIcEEEE, symObjAddr: 0x12F5C, symBinAddr: 0x2EA4C, symSize: 0x84 }
  - { offsetInCU: 0x45FB1, offset: 0x11697A, size: 0x8, addend: 0x0, symName: __ZN3mlc3ffi7details8Func2StrIdJdEE3RunIJLm0EEEENSt3__112basic_stringIcNS5_11char_traitsIcEENS5_9allocatorIcEEEENS5_16integer_sequenceImJXspT_EEEE, symObjAddr: 0x135DC, symBinAddr: 0x2F0CC, symSize: 0x1D0 }
  - { offsetInCU: 0x4673A, offset: 0x117103, size: 0x8, addend: 0x0, symName: '__ZN3mlc3ffi7details16FuncCallUnpackedINS0_3$_4EEEvPKNS0_7FuncObjEiPKNS0_7AnyViewEPNS0_3AnyE.cold.1', symObjAddr: 0x269F4, symBinAddr: 0x50AC0, symSize: 0x40 }
  - { offsetInCU: 0x46786, offset: 0x11714F, size: 0x8, addend: 0x0, symName: '__ZN3mlc3ffi7details22DefaultObjectAllocatorINS1_8FuncImplINS0_3$_4EEEvE7DeleterEPv', symObjAddr: 0x135D0, symBinAddr: 0x2F0C0, symSize: 0xC }
  - { offsetInCU: 0x467B5, offset: 0x11717E, size: 0x8, addend: 0x0, symName: __ZN3mlc3ffi7details8Func2StrIdJdEE5ApplyILm0EEEvRNSt3__113basic_ostreamIcNS5_11char_traitsIcEEEE, symObjAddr: 0x137AC, symBinAddr: 0x2F29C, symSize: 0x8C }
  - { offsetInCU: 0x472D9, offset: 0x117CA2, size: 0x8, addend: 0x0, symName: __ZN3mlc3ffi7details8Func2StrIPvJS3_EE3RunIJLm0EEEENSt3__112basic_stringIcNS6_11char_traitsIcEENS6_9allocatorIcEEEENS6_16integer_sequenceImJXspT_EEEE, symObjAddr: 0x13E54, symBinAddr: 0x2F78C, symSize: 0x1C0 }
  - { offsetInCU: 0x47A62, offset: 0x11842B, size: 0x8, addend: 0x0, symName: '__ZN3mlc3ffi7details16FuncCallUnpackedINS0_3$_5EEEvPKNS0_7FuncObjEiPKNS0_7AnyViewEPNS0_3AnyE.cold.1', symObjAddr: 0x26A34, symBinAddr: 0x50B00, symSize: 0x40 }
  - { offsetInCU: 0x47AAE, offset: 0x118477, size: 0x8, addend: 0x0, symName: '__ZN3mlc3ffi7details22DefaultObjectAllocatorINS1_8FuncImplINS0_3$_5EEEvE7DeleterEPv', symObjAddr: 0x13E48, symBinAddr: 0x2F780, symSize: 0xC }
  - { offsetInCU: 0x47ADD, offset: 0x1184A6, size: 0x8, addend: 0x0, symName: __ZN3mlc3ffi7details8Func2StrIPvJS3_EE5ApplyILm0EEEvRNSt3__113basic_ostreamIcNS6_11char_traitsIcEEEE, symObjAddr: 0x14014, symBinAddr: 0x2F94C, symSize: 0x84 }
  - { offsetInCU: 0x48A92, offset: 0x11945B, size: 0x8, addend: 0x0, symName: __ZN3mlc3ffi7details8Func2StrI10DLDataTypeJS3_EE3RunIJLm0EEEENSt3__112basic_stringIcNS6_11char_traitsIcEENS6_9allocatorIcEEEENS6_16integer_sequenceImJXspT_EEEE, symObjAddr: 0x146B0, symBinAddr: 0x2FE38, symSize: 0x1D0 }
  - { offsetInCU: 0x4921B, offset: 0x119BE4, size: 0x8, addend: 0x0, symName: '__ZN3mlc3ffi7details16FuncCallUnpackedINS0_3$_6EEEvPKNS0_7FuncObjEiPKNS0_7AnyViewEPNS0_3AnyE.cold.1', symObjAddr: 0x26A74, symBinAddr: 0x50B40, symSize: 0x40 }
  - { offsetInCU: 0x49267, offset: 0x119C30, size: 0x8, addend: 0x0, symName: '__ZN3mlc3ffi7details22DefaultObjectAllocatorINS1_8FuncImplINS0_3$_6EEEvE7DeleterEPv', symObjAddr: 0x146A4, symBinAddr: 0x2FE2C, symSize: 0xC }
  - { offsetInCU: 0x49296, offset: 0x119C5F, size: 0x8, addend: 0x0, symName: __ZN3mlc3ffi7details8Func2StrI10DLDataTypeJS3_EE5ApplyILm0EEEvRNSt3__113basic_ostreamIcNS6_11char_traitsIcEEEE, symObjAddr: 0x14880, symBinAddr: 0x30008, symSize: 0x8C }
  - { offsetInCU: 0x4A829, offset: 0x11B1F2, size: 0x8, addend: 0x0, symName: __ZN3mlc3ffi7details8Func2StrI8DLDeviceJS3_EE3RunIJLm0EEEENSt3__112basic_stringIcNS6_11char_traitsIcEENS6_9allocatorIcEEEENS6_16integer_sequenceImJXspT_EEEE, symObjAddr: 0x15B18, symBinAddr: 0x30500, symSize: 0x1CC }
  - { offsetInCU: 0x4AFC7, offset: 0x11B990, size: 0x8, addend: 0x0, symName: '__ZN3mlc3ffi7details16FuncCallUnpackedINS0_3$_7EEEvPKNS0_7FuncObjEiPKNS0_7AnyViewEPNS0_3AnyE.cold.1', symObjAddr: 0x26AB4, symBinAddr: 0x50B80, symSize: 0x40 }
  - { offsetInCU: 0x4B013, offset: 0x11B9DC, size: 0x8, addend: 0x0, symName: '__ZN3mlc3ffi7details22DefaultObjectAllocatorINS1_8FuncImplINS0_3$_7EEEvE7DeleterEPv', symObjAddr: 0x15B0C, symBinAddr: 0x304F4, symSize: 0xC }
  - { offsetInCU: 0x4B042, offset: 0x11BA0B, size: 0x8, addend: 0x0, symName: __ZN3mlc3ffi7details8Func2StrI8DLDeviceJS3_EE5ApplyILm0EEEvRNSt3__113basic_ostreamIcNS6_11char_traitsIcEEEE, symObjAddr: 0x15CE4, symBinAddr: 0x306CC, symSize: 0x90 }
  - { offsetInCU: 0x4BCC2, offset: 0x11C68B, size: 0x8, addend: 0x0, symName: __ZN3mlc3ffi7details8Func2StrIPKcJS4_EE3RunIJLm0EEEENSt3__112basic_stringIcNS7_11char_traitsIcEENS7_9allocatorIcEEEENS7_16integer_sequenceImJXspT_EEEE, symObjAddr: 0x16964, symBinAddr: 0x30C34, symSize: 0x1D4 }
  - { offsetInCU: 0x4C4D9, offset: 0x11CEA2, size: 0x8, addend: 0x0, symName: '__ZN3mlc3ffi7details16FuncCallUnpackedINS0_3$_8EEEvPKNS0_7FuncObjEiPKNS0_7AnyViewEPNS0_3AnyE.cold.1', symObjAddr: 0x26AF4, symBinAddr: 0x50BC0, symSize: 0x40 }
  - { offsetInCU: 0x4C525, offset: 0x11CEEE, size: 0x8, addend: 0x0, symName: '__ZN3mlc3ffi7details22DefaultObjectAllocatorINS1_8FuncImplINS0_3$_8EEEvE7DeleterEPv', symObjAddr: 0x16958, symBinAddr: 0x30C28, symSize: 0xC }
  - { offsetInCU: 0x4C554, offset: 0x11CF1D, size: 0x8, addend: 0x0, symName: __ZN3mlc3ffi7details8Func2StrIPKcJS4_EE5ApplyILm0EEEvRNSt3__113basic_ostreamIcNS7_11char_traitsIcEEEE, symObjAddr: 0x16B38, symBinAddr: 0x30E08, symSize: 0x98 }
  - { offsetInCU: 0x4CC45, offset: 0x11D60E, size: 0x8, addend: 0x0, symName: __ZN3mlc3ffi7details13ReflectGetterINSt3__112basic_stringIcNS3_11char_traitsIcEENS3_9allocatorIcEEEEE3RunEPvP6MLCAny, symObjAddr: 0x16D98, symBinAddr: 0x30EA0, symSize: 0x270 }
  - { offsetInCU: 0x4D3A6, offset: 0x11DD6F, size: 0x8, addend: 0x0, symName: __ZN3mlc3ffi7details13ReflectSetterINSt3__112basic_stringIcNS3_11char_traitsIcEENS3_9allocatorIcEEEEE3RunEPvP6MLCAny, symObjAddr: 0x17008, symBinAddr: 0x31110, symSize: 0x320 }
  - { offsetInCU: 0x4E2C9, offset: 0x11EC92, size: 0x8, addend: 0x0, symName: __ZN3mlc3ffi7details13ReflectGetterIiE3RunEPvP6MLCAny, symObjAddr: 0x17404, symBinAddr: 0x31430, symSize: 0x60 }
  - { offsetInCU: 0x4E946, offset: 0x11F30F, size: 0x8, addend: 0x0, symName: __ZN3mlc3ffi7details8Func2StrINS0_3RefINS0_6ObjectEEEJONSt3__112basic_stringIcNS6_11char_traitsIcEENS6_9allocatorIcEEEEOiEE3RunIJLm0ELm1EEEESC_NS6_16integer_sequenceImJXspT_EEEE, symObjAddr: 0x17C30, symBinAddr: 0x31C5C, symSize: 0x1E4 }
  - { offsetInCU: 0x4EF6E, offset: 0x11F937, size: 0x8, addend: 0x0, symName: __ZN3mlc3ffi7details16FuncCallUnpackedIPFNS0_3RefINS0_6ObjectEEEONSt3__112basic_stringIcNS6_11char_traitsIcEENS6_9allocatorIcEEEEOiEEEvPKNS0_7FuncObjEiPKNS0_7AnyViewEPNS0_3AnyE.cold.1, symObjAddr: 0x26B34, symBinAddr: 0x50C00, symSize: 0x40 }
  - { offsetInCU: 0x4EFBA, offset: 0x11F983, size: 0x8, addend: 0x0, symName: __ZN3mlc3ffi7details16FuncCallUnpackedIPFNS0_3RefINS0_6ObjectEEEONSt3__112basic_stringIcNS6_11char_traitsIcEENS6_9allocatorIcEEEEOiEEEvPKNS0_7FuncObjEiPKNS0_7AnyViewEPNS0_3AnyE.cold.2, symObjAddr: 0x26B74, symBinAddr: 0x50C40, symSize: 0x40 }
  - { offsetInCU: 0x4F006, offset: 0x11F9CF, size: 0x8, addend: 0x0, symName: __ZN3mlc3ffi7details22DefaultObjectAllocatorINS1_8FuncImplIPFNS0_3RefINS0_6ObjectEEEONSt3__112basic_stringIcNS7_11char_traitsIcEENS7_9allocatorIcEEEEOiEEEvE7DeleterEPv, symObjAddr: 0x17C24, symBinAddr: 0x31C50, symSize: 0xC }
  - { offsetInCU: 0x4F035, offset: 0x11F9FE, size: 0x8, addend: 0x0, symName: __ZN3mlc3ffi7details8Func2StrINS0_3RefINS0_6ObjectEEEJONSt3__112basic_stringIcNS6_11char_traitsIcEENS6_9allocatorIcEEEEOiEE5ApplyILm0EEEvRNS6_13basic_ostreamIcS9_EE, symObjAddr: 0x17E14, symBinAddr: 0x31E40, symSize: 0x84 }
  - { offsetInCU: 0x4F525, offset: 0x11FEEE, size: 0x8, addend: 0x0, symName: __ZN3mlc3ffi7details8Func2StrINS0_3RefINS0_6ObjectEEEJONSt3__112basic_stringIcNS6_11char_traitsIcEENS6_9allocatorIcEEEEOiEE5ApplyILm1EEEvRNS6_13basic_ostreamIcS9_EE, symObjAddr: 0x17E98, symBinAddr: 0x31EC4, symSize: 0x9C }
  - { offsetInCU: 0x4FAEB, offset: 0x1204B4, size: 0x8, addend: 0x0, symName: __ZN3mlc3ffi7details22DefaultObjectAllocatorINS0_17ReflectionTestObjEvE7DeleterEPv, symObjAddr: 0x18098, symBinAddr: 0x31F60, symSize: 0x30 }
  - { offsetInCU: 0x4FD31, offset: 0x1206FA, size: 0x8, addend: 0x0, symName: __ZNK3mlc3ffi7AnyView4CastIPNS0_17ReflectionTestObjEEET_v, symObjAddr: 0x188D0, symBinAddr: 0x32798, symSize: 0x274 }
  - { offsetInCU: 0x50387, offset: 0x120D50, size: 0x8, addend: 0x0, symName: __ZN3mlc3ffi7details8Func2StrIiJPNS0_17ReflectionTestObjEEE3RunIJLm0EEEENSt3__112basic_stringIcNS7_11char_traitsIcEENS7_9allocatorIcEEEENS7_16integer_sequenceImJXspT_EEEE, symObjAddr: 0x18558, symBinAddr: 0x32420, symSize: 0x1C0 }
  - { offsetInCU: 0x50B10, offset: 0x1214D9, size: 0x8, addend: 0x0, symName: __ZN3mlc3ffi7details16FuncCallUnpackedIZNS1_17FuncAllocatorImplIMNS0_17ReflectionTestObjEFivEvE3RunES6_EUlPS4_E_EEvPKNS0_7FuncObjEiPKNS0_7AnyViewEPNS0_3AnyE.cold.1, symObjAddr: 0x26BB4, symBinAddr: 0x50C80, symSize: 0x40 }
  - { offsetInCU: 0x50B5C, offset: 0x121525, size: 0x8, addend: 0x0, symName: __ZN3mlc3ffi8Type2StrIPNS0_17ReflectionTestObjEE3RunEv, symObjAddr: 0x18824, symBinAddr: 0x326EC, symSize: 0xAC }
  - { offsetInCU: 0x51142, offset: 0x121B0B, size: 0x8, addend: 0x0, symName: __ZN3mlc3ffi7details22DefaultObjectAllocatorINS1_8FuncImplIZNS1_17FuncAllocatorImplIMNS0_17ReflectionTestObjEFivEvE3RunES7_EUlPS5_E_EEvE7DeleterEPv, symObjAddr: 0x1854C, symBinAddr: 0x32414, symSize: 0xC }
  - { offsetInCU: 0x51171, offset: 0x121B3A, size: 0x8, addend: 0x0, symName: __ZN3mlc3ffi7details8Func2StrIiJPNS0_17ReflectionTestObjEEE5ApplyILm0EEEvRNSt3__113basic_ostreamIcNS7_11char_traitsIcEEEE, symObjAddr: 0x18718, symBinAddr: 0x325E0, symSize: 0x10C }
  - { offsetInCU: 0x51A6B, offset: 0x122434, size: 0x8, addend: 0x0, symName: '__ZN3mlc3ffi7details22DefaultObjectAllocatorINS1_8FuncImplINS0_3$_9EEEvE7DeleterEPv', symObjAddr: 0x18D8C, symBinAddr: 0x32C54, symSize: 0xC }
  - { offsetInCU: 0x51B8A, offset: 0x122553, size: 0x8, addend: 0x0, symName: __ZNK3mlc3ffi7AnyView4CastIPNS0_7FuncObjEEET_v, symObjAddr: 0x19CE0, symBinAddr: 0x33B08, symSize: 0x268 }
  - { offsetInCU: 0x521E0, offset: 0x122BA9, size: 0x8, addend: 0x0, symName: __ZN3mlc3ffi7details8Func2StrIvJPNS0_7FuncObjEEE3RunIJLm0EEEENSt3__112basic_stringIcNS7_11char_traitsIcEENS7_9allocatorIcEEEENS7_16integer_sequenceImJXspT_EEEE, symObjAddr: 0x1997C, symBinAddr: 0x33844, symSize: 0x1C4 }
  - { offsetInCU: 0x5297E, offset: 0x123347, size: 0x8, addend: 0x0, symName: '__ZN3mlc3ffi7details16FuncCallUnpackedINS0_4$_10EEEvPKNS0_7FuncObjEiPKNS0_7AnyViewEPNS0_3AnyE.cold.1', symObjAddr: 0x26BF4, symBinAddr: 0x50CC0, symSize: 0x40 }
  - { offsetInCU: 0x52CC9, offset: 0x123692, size: 0x8, addend: 0x0, symName: '__ZN3mlc3ffi7details22DefaultObjectAllocatorINS1_8FuncImplINS0_4$_10EEEvE7DeleterEPv', symObjAddr: 0x19970, symBinAddr: 0x33838, symSize: 0xC }
  - { offsetInCU: 0x52CF8, offset: 0x1236C1, size: 0x8, addend: 0x0, symName: __ZN3mlc3ffi7details8Func2StrIvJPNS0_7FuncObjEEE5ApplyILm0EEEvRNSt3__113basic_ostreamIcNS7_11char_traitsIcEEEE, symObjAddr: 0x19B40, symBinAddr: 0x33A08, symSize: 0x100 }
  - { offsetInCU: 0x5356F, offset: 0x123F38, size: 0x8, addend: 0x0, symName: __ZN3mlc3ffi7details8Func2StrINS0_3AnyEJPNS0_7FuncObjEEE3RunIJLm0EEEENSt3__112basic_stringIcNS8_11char_traitsIcEENS8_9allocatorIcEEEENS8_16integer_sequenceImJXspT_EEEE, symObjAddr: 0x1AC08, symBinAddr: 0x34A30, symSize: 0x1C0 }
  - { offsetInCU: 0x53CF8, offset: 0x1246C1, size: 0x8, addend: 0x0, symName: '__ZN3mlc3ffi7details16FuncCallUnpackedINS0_4$_11EEEvPKNS0_7FuncObjEiPKNS0_7AnyViewEPNS0_3AnyE.cold.1', symObjAddr: 0x26C34, symBinAddr: 0x50D00, symSize: 0x40 }
  - { offsetInCU: 0x53D44, offset: 0x12470D, size: 0x8, addend: 0x0, symName: '__ZN3mlc3ffi7details22DefaultObjectAllocatorINS1_8FuncImplINS0_4$_11EEEvE7DeleterEPv', symObjAddr: 0x1ABFC, symBinAddr: 0x34A24, symSize: 0xC }
  - { offsetInCU: 0x53D73, offset: 0x12473C, size: 0x8, addend: 0x0, symName: __ZN3mlc3ffi7details8Func2StrINS0_3AnyEJPNS0_7FuncObjEEE5ApplyILm0EEEvRNSt3__113basic_ostreamIcNS8_11char_traitsIcEEEE, symObjAddr: 0x1ADC8, symBinAddr: 0x34BF0, symSize: 0x100 }
  - { offsetInCU: 0x5465F, offset: 0x125028, size: 0x8, addend: 0x0, symName: __ZNK3mlc3ffi7AnyView4CastINS0_3StrEEET_v, symObjAddr: 0x226D4, symBinAddr: 0x3C4FC, symSize: 0x3A4 }
  - { offsetInCU: 0x550A1, offset: 0x125A6A, size: 0x8, addend: 0x0, symName: __ZN3mlc3ffi7details8Func2StrINS0_4FuncEJNS0_3StrEEE3RunIJLm0EEEENSt3__112basic_stringIcNS7_11char_traitsIcEENS7_9allocatorIcEEEENS7_16integer_sequenceImJXspT_EEEE, symObjAddr: 0x1B4F4, symBinAddr: 0x3531C, symSize: 0x1D4 }
  - { offsetInCU: 0x558B9, offset: 0x126282, size: 0x8, addend: 0x0, symName: __ZN3mlc3ffi18ObjectRefDummyRootD2Ev, symObjAddr: 0x1BE60, symBinAddr: 0x35C88, symSize: 0x50 }
  - { offsetInCU: 0x55967, offset: 0x126330, size: 0x8, addend: 0x0, symName: '__ZN3mlc3ffi7details16FuncCallUnpackedINS0_3$_0EEEvPKNS0_7FuncObjEiPKNS0_7AnyViewEPNS0_3AnyE.cold.1', symObjAddr: 0x26C74, symBinAddr: 0x50D40, symSize: 0x40 }
  - { offsetInCU: 0x559B3, offset: 0x12637C, size: 0x8, addend: 0x0, symName: '__ZN3mlc3ffi7details22DefaultObjectAllocatorINS1_8FuncImplINS0_3$_0EEEvE7DeleterEPv', symObjAddr: 0x1B4E8, symBinAddr: 0x35310, symSize: 0xC }
  - { offsetInCU: 0x559E9, offset: 0x1263B2, size: 0x8, addend: 0x0, symName: __ZN3mlc3ffi7details8Func2StrINS0_4FuncEJNS0_3StrEEE5ApplyILm0EEEvRNSt3__113basic_ostreamIcNS7_11char_traitsIcEEEE, symObjAddr: 0x1B6C8, symBinAddr: 0x354F0, symSize: 0x94 }
  - { offsetInCU: 0x560D6, offset: 0x126A9F, size: 0x8, addend: 0x0, symName: __ZNK3mlc3ffi7AnyView4CastINS0_5UListEEET_v, symObjAddr: 0x1BEB0, symBinAddr: 0x35CD8, symSize: 0x338 }
  - { offsetInCU: 0x56A61, offset: 0x12742A, size: 0x8, addend: 0x0, symName: __ZN3mlc3ffi7details8Func2StrINS0_5UListEJS3_EE3RunIJLm0EEEENSt3__112basic_stringIcNS6_11char_traitsIcEENS6_9allocatorIcEEEENS6_16integer_sequenceImJXspT_EEEE, symObjAddr: 0x1BC04, symBinAddr: 0x35A2C, symSize: 0x1CC }
  - { offsetInCU: 0x57264, offset: 0x127C2D, size: 0x8, addend: 0x0, symName: '__ZN3mlc3ffi7details16FuncCallUnpackedIZNKS0_3$_0clENS0_3StrEEUlNS0_5UListEE_EEvPKNS0_7FuncObjEiPKNS0_7AnyViewEPNS0_3AnyE.cold.1', symObjAddr: 0x26CB4, symBinAddr: 0x50D80, symSize: 0x40 }
  - { offsetInCU: 0x572B0, offset: 0x127C79, size: 0x8, addend: 0x0, symName: '__ZN3mlc3ffi7details22DefaultObjectAllocatorINS1_8FuncImplIZNKS0_3$_0clENS0_3StrEEUlNS0_5UListEE_EEvE7DeleterEPv', symObjAddr: 0x1BBF8, symBinAddr: 0x35A20, symSize: 0xC }
  - { offsetInCU: 0x572DF, offset: 0x127CA8, size: 0x8, addend: 0x0, symName: __ZN3mlc3ffi7details8Func2StrINS0_5UListEJS3_EE5ApplyILm0EEEvRNSt3__113basic_ostreamIcNS6_11char_traitsIcEEEE, symObjAddr: 0x1BDD0, symBinAddr: 0x35BF8, symSize: 0x90 }
  - { offsetInCU: 0x5791F, offset: 0x1282E8, size: 0x8, addend: 0x0, symName: __ZN3mlc3ffi8Type2StrINS0_3RefINS0_8UListObjEEEE3RunEv, symObjAddr: 0x1C1E8, symBinAddr: 0x36010, symSize: 0x118 }
  - { offsetInCU: 0x5828B, offset: 0x128C54, size: 0x8, addend: 0x0, symName: __ZNK3mlc3ffi7AnyView4CastINS0_4ListINS0_3AnyEEEEET_v, symObjAddr: 0x1CB24, symBinAddr: 0x3694C, symSize: 0x5D4 }
  - { offsetInCU: 0x59922, offset: 0x12A2EB, size: 0x8, addend: 0x0, symName: __ZN3mlc3ffi7details8Func2StrINS0_4ListINS0_3AnyEEEJS5_EE3RunIJLm0EEEENSt3__112basic_stringIcNS8_11char_traitsIcEENS8_9allocatorIcEEEENS8_16integer_sequenceImJXspT_EEEE, symObjAddr: 0x1C7B0, symBinAddr: 0x365D8, symSize: 0x1DC }
  - { offsetInCU: 0x59F30, offset: 0x12A8F9, size: 0x8, addend: 0x0, symName: '__ZN3mlc3ffi7details16FuncCallUnpackedIZNKS0_3$_0clENS0_3StrEEUlNS0_4ListINS0_3AnyEEEE_EEvPKNS0_7FuncObjEiPKNS0_7AnyViewEPS6_.cold.1', symObjAddr: 0x26CF4, symBinAddr: 0x50DC0, symSize: 0x40 }
  - { offsetInCU: 0x59F7C, offset: 0x12A945, size: 0x8, addend: 0x0, symName: __ZN3mlc3ffi8Type2StrINS0_4ListINS0_3AnyEEEE3RunEv, symObjAddr: 0x1CA20, symBinAddr: 0x36848, symSize: 0x104 }
  - { offsetInCU: 0x5A6FF, offset: 0x12B0C8, size: 0x8, addend: 0x0, symName: '__ZN3mlc3ffi7details22DefaultObjectAllocatorINS1_8FuncImplIZNKS0_3$_0clENS0_3StrEEUlNS0_4ListINS0_3AnyEEEE_EEvE7DeleterEPv', symObjAddr: 0x1C7A4, symBinAddr: 0x365CC, symSize: 0xC }
  - { offsetInCU: 0x5A72E, offset: 0x12B0F7, size: 0x8, addend: 0x0, symName: __ZN3mlc3ffi7details8Func2StrINS0_4ListINS0_3AnyEEEJS5_EE5ApplyILm0EEEvRNSt3__113basic_ostreamIcNS8_11char_traitsIcEEEE, symObjAddr: 0x1C98C, symBinAddr: 0x367B4, symSize: 0x94 }
  - { offsetInCU: 0x5AD2B, offset: 0x12B6F4, size: 0x8, addend: 0x0, symName: __ZN3mlc3ffi8Type2StrINS0_3RefINS0_7ListObjINS0_3AnyEEEEEE3RunEv, symObjAddr: 0x1D0F8, symBinAddr: 0x36F20, symSize: 0x118 }
  - { offsetInCU: 0x5B527, offset: 0x12BEF0, size: 0x8, addend: 0x0, symName: __ZN3mlc3ffi7details15NestedTypeError8NewFrameENSt3__112basic_stringIcNS3_11char_traitsIcEENS3_9allocatorIcEEEE, symObjAddr: 0x1EAE8, symBinAddr: 0x38910, symSize: 0x13C }
  - { offsetInCU: 0x5BD78, offset: 0x12C741, size: 0x8, addend: 0x0, symName: __ZN3mlc3ffi7details15NestedTypeErrorC1ERKS2_, symObjAddr: 0x1EC24, symBinAddr: 0x38A4C, symSize: 0x6C }
  - { offsetInCU: 0x5BE3F, offset: 0x12C808, size: 0x8, addend: 0x0, symName: __ZN3mlc3ffi7details15NestedTypeErrorD1Ev, symObjAddr: 0x1EC90, symBinAddr: 0x38AB8, symSize: 0x90 }
  - { offsetInCU: 0x5C2A1, offset: 0x12CC6A, size: 0x8, addend: 0x0, symName: __ZNK3mlc3ffi7details15NestedTypeError6FormatERNSt3__113basic_ostreamIcNS3_11char_traitsIcEEEENS3_12basic_stringIcS6_NS3_9allocatorIcEEEE, symObjAddr: 0x1D2B0, symBinAddr: 0x370D8, symSize: 0x1838 }
  - { offsetInCU: 0x60B3C, offset: 0x131505, size: 0x8, addend: 0x0, symName: __ZN3mlc3ffi8Type2StrIPNS0_7ListObjINS0_3AnyEEEE3RunEv, symObjAddr: 0x1D210, symBinAddr: 0x37038, symSize: 0xA0 }
  - { offsetInCU: 0x6148D, offset: 0x131E56, size: 0x8, addend: 0x0, symName: __ZNSt3__16vectorIN3mlc3ffi7details15NestedTypeError5FrameENS_9allocatorIS5_EEE21__push_back_slow_pathIS5_EEvOT_, symObjAddr: 0x1EDF4, symBinAddr: 0x38C1C, symSize: 0x194 }
  - { offsetInCU: 0x61CF2, offset: 0x1326BB, size: 0x8, addend: 0x0, symName: __ZNKSt3__16vectorIN3mlc3ffi7details15NestedTypeError5FrameENS_9allocatorIS5_EEE20__throw_length_errorB8ue170006Ev, symObjAddr: 0x1EF88, symBinAddr: 0x38DB0, symSize: 0x14 }
  - { offsetInCU: 0x61D06, offset: 0x1326CF, size: 0x8, addend: 0x0, symName: __ZN3mlc3ffi7details15NestedTypeError5FrameD1Ev, symObjAddr: 0x1EDB4, symBinAddr: 0x38BDC, symSize: 0x40 }
  - { offsetInCU: 0x62006, offset: 0x1329CF, size: 0x8, addend: 0x0, symName: __ZNSt3__16vectorIN3mlc3ffi7details15NestedTypeError5FrameENS_9allocatorIS5_EEE16__init_with_sizeB8ue170006IPS5_SA_EEvT_T0_m, symObjAddr: 0x1EF9C, symBinAddr: 0x38DC4, symSize: 0xEC }
  - { offsetInCU: 0x6259E, offset: 0x132F67, size: 0x8, addend: 0x0, symName: __ZN3mlc3ffi7details15NestedTypeErrorD0Ev, symObjAddr: 0x1ED20, symBinAddr: 0x38B48, symSize: 0x94 }
  - { offsetInCU: 0x62C3C, offset: 0x133605, size: 0x8, addend: 0x0, symName: __ZNKSt3__16vectorIN3mlc3ffi7details15NestedTypeError5FrameENS_9allocatorIS5_EEE20__throw_length_errorB8ue170006Ev, symObjAddr: 0x1EF88, symBinAddr: 0x38DB0, symSize: 0x14 }
  - { offsetInCU: 0x62C65, offset: 0x13362E, size: 0x8, addend: 0x0, symName: __ZNSt3__16vectorIN3mlc3ffi7details15NestedTypeError5FrameENS_9allocatorIS5_EEE16__init_with_sizeB8ue170006IPS5_SA_EEvT_T0_m, symObjAddr: 0x1EF9C, symBinAddr: 0x38DC4, symSize: 0xEC }
  - { offsetInCU: 0x62E74, offset: 0x13383D, size: 0x8, addend: 0x0, symName: __ZN3mlc3ffi7details15NestedTypeError5FrameC2ERKS3_, symObjAddr: 0x1F124, symBinAddr: 0x38F4C, symSize: 0x118 }
  - { offsetInCU: 0x636A0, offset: 0x134069, size: 0x8, addend: 0x0, symName: __ZNSt3__16vectorIN3mlc3ffi7details15NestedTypeError5FrameENS_9allocatorIS5_EEE16__init_with_sizeB8ue170006IPS5_SA_EEvT_T0_m.cold.1, symObjAddr: 0x26D34, symBinAddr: 0x50E00, symSize: 0x58 }
  - { offsetInCU: 0x63A23, offset: 0x1343EC, size: 0x8, addend: 0x0, symName: __ZNSt3__128__exception_guard_exceptionsINS_6vectorIN3mlc3ffi7details15NestedTypeError5FrameENS_9allocatorIS6_EEE16__destroy_vectorEED1B8ue170006Ev, symObjAddr: 0x1F088, symBinAddr: 0x38EB0, symSize: 0x9C }
  - { offsetInCU: 0x640CA, offset: 0x134A93, size: 0x8, addend: 0x0, symName: __ZNKSt3__16vectorIN3mlc3ffi7AnyViewENS_9allocatorIS3_EEE20__throw_length_errorB8ue170006Ev, symObjAddr: 0x1F23C, symBinAddr: 0x39064, symSize: 0x14 }
  - { offsetInCU: 0x640F3, offset: 0x134ABC, size: 0x8, addend: 0x0, symName: '__ZN3mlc3ffi7details16FuncCallUnpackedIZNKS0_3$_0clENS0_3StrEEUlNS0_4ListINS5_IiEEEEE_EEvPKNS0_7FuncObjEiPKNS0_7AnyViewEPNS0_3AnyE', symObjAddr: 0x1F250, symBinAddr: 0x39078, symSize: 0x4A4 }
  - { offsetInCU: 0x640FE, offset: 0x134AC7, size: 0x8, addend: 0x0, symName: __ZN3mlc3ffi7details15NestedTypeError5FrameC2ERKS3_.cold.1, symObjAddr: 0x26D8C, symBinAddr: 0x50E58, symSize: 0x14 }
  - { offsetInCU: 0x64119, offset: 0x134AE2, size: 0x8, addend: 0x0, symName: __ZN3mlc3ffi7details15NestedTypeError5FrameC2ERKS3_.cold.1, symObjAddr: 0x26D8C, symBinAddr: 0x50E58, symSize: 0x14 }
  - { offsetInCU: 0x6412D, offset: 0x134AF6, size: 0x8, addend: 0x0, symName: __ZN3mlc3ffi7details15NestedTypeError5FrameC2ERKS3_.cold.1, symObjAddr: 0x26D8C, symBinAddr: 0x50E58, symSize: 0x14 }
  - { offsetInCU: 0x64142, offset: 0x134B0B, size: 0x8, addend: 0x0, symName: __ZN3mlc3ffi7details15NestedTypeError5FrameC2ERKS3_.cold.1, symObjAddr: 0x26D8C, symBinAddr: 0x50E58, symSize: 0x14 }
  - { offsetInCU: 0x64372, offset: 0x134D3B, size: 0x8, addend: 0x0, symName: __ZNK3mlc3ffi7AnyView4CastINS0_4ListINS3_IiEEEEEET_v, symObjAddr: 0x1FB6C, symBinAddr: 0x39994, symSize: 0x99C }
  - { offsetInCU: 0x66560, offset: 0x136F29, size: 0x8, addend: 0x0, symName: __ZN3mlc3ffi7details8Func2StrINS0_4ListINS3_IiEEEEJS5_EE3RunIJLm0EEEENSt3__112basic_stringIcNS8_11char_traitsIcEENS8_9allocatorIcEEEENS8_16integer_sequenceImJXspT_EEEE, symObjAddr: 0x1F700, symBinAddr: 0x39528, symSize: 0x1DC }
  - { offsetInCU: 0x66B6E, offset: 0x137537, size: 0x8, addend: 0x0, symName: '__ZN3mlc3ffi7details16FuncCallUnpackedIZNKS0_3$_0clENS0_3StrEEUlNS0_4ListINS5_IiEEEEE_EEvPKNS0_7FuncObjEiPKNS0_7AnyViewEPNS0_3AnyE.cold.1', symObjAddr: 0x26DA0, symBinAddr: 0x50E6C, symSize: 0x40 }
  - { offsetInCU: 0x66BBA, offset: 0x137583, size: 0x8, addend: 0x0, symName: __ZN3mlc3ffi8Type2StrINS0_4ListINS2_IiEEEEE3RunEv, symObjAddr: 0x1F970, symBinAddr: 0x39798, symSize: 0xF8 }
  - { offsetInCU: 0x67155, offset: 0x137B1E, size: 0x8, addend: 0x0, symName: '__ZN3mlc3ffi7details22DefaultObjectAllocatorINS1_8FuncImplIZNKS0_3$_0clENS0_3StrEEUlNS0_4ListINS6_IiEEEEE_EEvE7DeleterEPv', symObjAddr: 0x1F6F4, symBinAddr: 0x3951C, symSize: 0xC }
  - { offsetInCU: 0x67184, offset: 0x137B4D, size: 0x8, addend: 0x0, symName: __ZN3mlc3ffi7details8Func2StrINS0_4ListINS3_IiEEEEJS5_EE5ApplyILm0EEEvRNSt3__113basic_ostreamIcNS8_11char_traitsIcEEEE, symObjAddr: 0x1F8DC, symBinAddr: 0x39704, symSize: 0x94 }
  - { offsetInCU: 0x674DC, offset: 0x137EA5, size: 0x8, addend: 0x0, symName: __ZN3mlc3ffi8Type2StrINS0_4ListIiEEE3RunEv, symObjAddr: 0x1FA68, symBinAddr: 0x39890, symSize: 0x104 }
  - { offsetInCU: 0x67E55, offset: 0x13881E, size: 0x8, addend: 0x0, symName: __ZN3mlc3ffi8Type2StrINS0_3RefINS0_7ListObjINS0_4ListIiEEEEEEE3RunEv, symObjAddr: 0x20508, symBinAddr: 0x3A330, symSize: 0x118 }
  - { offsetInCU: 0x68651, offset: 0x13901A, size: 0x8, addend: 0x0, symName: __ZN3mlc3ffi7details15NestedTypeError8NewIndexENS0_7AnyViewE, symObjAddr: 0x206C0, symBinAddr: 0x3A4E8, symSize: 0x114 }
  - { offsetInCU: 0x68B09, offset: 0x1394D2, size: 0x8, addend: 0x0, symName: '__ZN3mlc3ffi7details16FuncCallUnpackedIZNKS0_3$_0clENS0_3StrEEUlNS0_5UDictEE_EEvPKNS0_7FuncObjEiPKNS0_7AnyViewEPNS0_3AnyE', symObjAddr: 0x207D4, symBinAddr: 0x3A5FC, symSize: 0x4A0 }
  - { offsetInCU: 0x68B14, offset: 0x1394DD, size: 0x8, addend: 0x0, symName: __ZN3mlc3ffi8Type2StrIPNS0_7ListObjINS0_4ListIiEEEEE3RunEv, symObjAddr: 0x20620, symBinAddr: 0x3A448, symSize: 0xA0 }
  - { offsetInCU: 0x694FA, offset: 0x139EC3, size: 0x8, addend: 0x0, symName: __ZNK3mlc3ffi7AnyView4CastINS0_5UDictEEET_v, symObjAddr: 0x20EE4, symBinAddr: 0x3AD0C, symSize: 0x338 }
  - { offsetInCU: 0x69E85, offset: 0x13A84E, size: 0x8, addend: 0x0, symName: __ZN3mlc3ffi7details8Func2StrINS0_5UDictEJS3_EE3RunIJLm0EEEENSt3__112basic_stringIcNS6_11char_traitsIcEENS6_9allocatorIcEEEENS6_16integer_sequenceImJXspT_EEEE, symObjAddr: 0x20C80, symBinAddr: 0x3AAA8, symSize: 0x1D0 }
  - { offsetInCU: 0x6A679, offset: 0x13B042, size: 0x8, addend: 0x0, symName: '__ZN3mlc3ffi7details16FuncCallUnpackedIZNKS0_3$_0clENS0_3StrEEUlNS0_5UDictEE_EEvPKNS0_7FuncObjEiPKNS0_7AnyViewEPNS0_3AnyE.cold.1', symObjAddr: 0x26DE0, symBinAddr: 0x50EAC, symSize: 0x40 }
  - { offsetInCU: 0x6A6C5, offset: 0x13B08E, size: 0x8, addend: 0x0, symName: '__ZN3mlc3ffi7details22DefaultObjectAllocatorINS1_8FuncImplIZNKS0_3$_0clENS0_3StrEEUlNS0_5UDictEE_EEvE7DeleterEPv', symObjAddr: 0x20C74, symBinAddr: 0x3AA9C, symSize: 0xC }
  - { offsetInCU: 0x6A6F4, offset: 0x13B0BD, size: 0x8, addend: 0x0, symName: __ZN3mlc3ffi7details8Func2StrINS0_5UDictEJS3_EE5ApplyILm0EEEvRNSt3__113basic_ostreamIcNS6_11char_traitsIcEEEE, symObjAddr: 0x20E50, symBinAddr: 0x3AC78, symSize: 0x94 }
  - { offsetInCU: 0x6ACF2, offset: 0x13B6BB, size: 0x8, addend: 0x0, symName: __ZN3mlc3ffi8Type2StrINS0_3RefINS0_8UDictObjEEEE3RunEv, symObjAddr: 0x2121C, symBinAddr: 0x3B044, symSize: 0x118 }
  - { offsetInCU: 0x6B65E, offset: 0x13C027, size: 0x8, addend: 0x0, symName: __ZNK3mlc3ffi7AnyView4CastINS0_4DictINS0_3StrENS0_3AnyEEEEET_v, symObjAddr: 0x21C7C, symBinAddr: 0x3BAA4, symSize: 0x67C }
  - { offsetInCU: 0x6CDBA, offset: 0x13D783, size: 0x8, addend: 0x0, symName: __ZN3mlc3ffi7details8Func2StrINS0_4DictINS0_3StrENS0_3AnyEEEJS6_EE3RunIJLm0EEEENSt3__112basic_stringIcNS9_11char_traitsIcEENS9_9allocatorIcEEEENS9_16integer_sequenceImJXspT_EEEE, symObjAddr: 0x217E4, symBinAddr: 0x3B60C, symSize: 0x1DC }
  - { offsetInCU: 0x6D3C8, offset: 0x13DD91, size: 0x8, addend: 0x0, symName: '__ZN3mlc3ffi7details16FuncCallUnpackedIZNKS0_3$_0clENS0_3StrEEUlNS0_4DictIS4_NS0_3AnyEEEE_EEvPKNS0_7FuncObjEiPKNS0_7AnyViewEPS6_.cold.1', symObjAddr: 0x26E20, symBinAddr: 0x50EEC, symSize: 0x40 }
  - { offsetInCU: 0x6D414, offset: 0x13DDDD, size: 0x8, addend: 0x0, symName: __ZN3mlc3ffi8Type2StrINS0_4DictINS0_3StrENS0_3AnyEEEE3RunEv, symObjAddr: 0x21A54, symBinAddr: 0x3B87C, symSize: 0x228 }
  - { offsetInCU: 0x6E594, offset: 0x13EF5D, size: 0x8, addend: 0x0, symName: '__ZN3mlc3ffi7details22DefaultObjectAllocatorINS1_8FuncImplIZNKS0_3$_0clENS0_3StrEEUlNS0_4DictIS5_NS0_3AnyEEEE_EEvE7DeleterEPv', symObjAddr: 0x217D8, symBinAddr: 0x3B600, symSize: 0xC }
  - { offsetInCU: 0x6E5C3, offset: 0x13EF8C, size: 0x8, addend: 0x0, symName: __ZN3mlc3ffi7details8Func2StrINS0_4DictINS0_3StrENS0_3AnyEEEJS6_EE5ApplyILm0EEEvRNSt3__113basic_ostreamIcNS9_11char_traitsIcEEEE, symObjAddr: 0x219C0, symBinAddr: 0x3B7E8, symSize: 0x94 }
  - { offsetInCU: 0x6EC12, offset: 0x13F5DB, size: 0x8, addend: 0x0, symName: __ZZN3mlc3ffi7details15NestedTypeCheckINS0_4DictINS0_3StrENS0_3AnyEEEE3RunERK6MLCAnyENKUlPhPS8_SC_E_clESB_SC_SC_, symObjAddr: 0x224B0, symBinAddr: 0x3C2D8, symSize: 0x224 }
  - { offsetInCU: 0x6F5E0, offset: 0x13FFA9, size: 0x8, addend: 0x0, symName: __ZN3mlc3ffi8Type2StrINS0_3RefINS0_7DictObjINS0_3StrENS0_3AnyEEEEEE3RunEv, symObjAddr: 0x222F8, symBinAddr: 0x3C120, symSize: 0x118 }
  - { offsetInCU: 0x6FDDC, offset: 0x1407A5, size: 0x8, addend: 0x0, symName: __ZN3mlc3ffi8Type2StrIPNS0_7DictObjINS0_3StrENS0_3AnyEEEE3RunEv, symObjAddr: 0x22410, symBinAddr: 0x3C238, symSize: 0xA0 }
  - { offsetInCU: 0x703F3, offset: 0x140DBC, size: 0x8, addend: 0x0, symName: __ZN3mlc3ffi8Type2StrINS0_3RefINS0_6StrObjEEEE3RunEv, symObjAddr: 0x22A78, symBinAddr: 0x3C8A0, symSize: 0x114 }
  - { offsetInCU: 0x70D5F, offset: 0x141728, size: 0x8, addend: 0x0, symName: __ZNK3mlc3ffi7AnyView4CastINS0_4DictINS0_3AnyENS0_3StrEEEEET_v, symObjAddr: 0x234D4, symBinAddr: 0x3D2FC, symSize: 0x67C }
  - { offsetInCU: 0x724BB, offset: 0x142E84, size: 0x8, addend: 0x0, symName: __ZN3mlc3ffi7details8Func2StrINS0_4DictINS0_3AnyENS0_3StrEEEJS6_EE3RunIJLm0EEEENSt3__112basic_stringIcNS9_11char_traitsIcEENS9_9allocatorIcEEEENS9_16integer_sequenceImJXspT_EEEE, symObjAddr: 0x2303C, symBinAddr: 0x3CE64, symSize: 0x1DC }
  - { offsetInCU: 0x72AC9, offset: 0x143492, size: 0x8, addend: 0x0, symName: '__ZN3mlc3ffi7details16FuncCallUnpackedIZNKS0_3$_0clENS0_3StrEEUlNS0_4DictINS0_3AnyES4_EEE_EEvPKNS0_7FuncObjEiPKNS0_7AnyViewEPS6_.cold.1', symObjAddr: 0x26E60, symBinAddr: 0x50F2C, symSize: 0x40 }
  - { offsetInCU: 0x72B15, offset: 0x1434DE, size: 0x8, addend: 0x0, symName: __ZN3mlc3ffi8Type2StrINS0_4DictINS0_3AnyENS0_3StrEEEE3RunEv, symObjAddr: 0x232AC, symBinAddr: 0x3D0D4, symSize: 0x228 }
  - { offsetInCU: 0x73C95, offset: 0x14465E, size: 0x8, addend: 0x0, symName: '__ZN3mlc3ffi7details22DefaultObjectAllocatorINS1_8FuncImplIZNKS0_3$_0clENS0_3StrEEUlNS0_4DictINS0_3AnyES5_EEE_EEvE7DeleterEPv', symObjAddr: 0x23030, symBinAddr: 0x3CE58, symSize: 0xC }
  - { offsetInCU: 0x73CC4, offset: 0x14468D, size: 0x8, addend: 0x0, symName: __ZN3mlc3ffi7details8Func2StrINS0_4DictINS0_3AnyENS0_3StrEEEJS6_EE5ApplyILm0EEEvRNSt3__113basic_ostreamIcNS9_11char_traitsIcEEEE, symObjAddr: 0x23218, symBinAddr: 0x3D040, symSize: 0x94 }
  - { offsetInCU: 0x74210, offset: 0x144BD9, size: 0x8, addend: 0x0, symName: __ZZN3mlc3ffi7details15NestedTypeCheckINS0_4DictINS0_3AnyENS0_3StrEEEE3RunERK6MLCAnyENKUlPhPS8_SC_E_clESB_SC_SC_, symObjAddr: 0x23D08, symBinAddr: 0x3DB30, symSize: 0x1F0 }
  - { offsetInCU: 0x74851, offset: 0x14521A, size: 0x8, addend: 0x0, symName: __ZN3mlc3ffi8Type2StrINS0_3RefINS0_7DictObjINS0_3AnyENS0_3StrEEEEEE3RunEv, symObjAddr: 0x23B50, symBinAddr: 0x3D978, symSize: 0x118 }
  - { offsetInCU: 0x7504D, offset: 0x145A16, size: 0x8, addend: 0x0, symName: __ZN3mlc3ffi8Type2StrIPNS0_7DictObjINS0_3AnyENS0_3StrEEEE3RunEv, symObjAddr: 0x23C68, symBinAddr: 0x3DA90, symSize: 0xA0 }
  - { offsetInCU: 0x7571C, offset: 0x1460E5, size: 0x8, addend: 0x0, symName: __ZNK3mlc3ffi7AnyView4CastINS0_4DictINS0_3AnyES4_EEEET_v, symObjAddr: 0x24830, symBinAddr: 0x3E658, symSize: 0x5D8 }
  - { offsetInCU: 0x76DC8, offset: 0x147791, size: 0x8, addend: 0x0, symName: __ZN3mlc3ffi7details8Func2StrINS0_4DictINS0_3AnyES4_EEJS5_EE3RunIJLm0EEEENSt3__112basic_stringIcNS8_11char_traitsIcEENS8_9allocatorIcEEEENS8_16integer_sequenceImJXspT_EEEE, symObjAddr: 0x243A8, symBinAddr: 0x3E1D0, symSize: 0x1DC }
  - { offsetInCU: 0x773D6, offset: 0x147D9F, size: 0x8, addend: 0x0, symName: '__ZN3mlc3ffi7details16FuncCallUnpackedIZNKS0_3$_0clENS0_3StrEEUlNS0_4DictINS0_3AnyES6_EEE_EEvPKNS0_7FuncObjEiPKNS0_7AnyViewEPS6_.cold.1', symObjAddr: 0x26EA0, symBinAddr: 0x50F6C, symSize: 0x40 }
  - { offsetInCU: 0x77422, offset: 0x147DEB, size: 0x8, addend: 0x0, symName: __ZN3mlc3ffi8Type2StrINS0_4DictINS0_3AnyES3_EEE3RunEv, symObjAddr: 0x24618, symBinAddr: 0x3E440, symSize: 0x218 }
  - { offsetInCU: 0x78513, offset: 0x148EDC, size: 0x8, addend: 0x0, symName: '__ZN3mlc3ffi7details22DefaultObjectAllocatorINS1_8FuncImplIZNKS0_3$_0clENS0_3StrEEUlNS0_4DictINS0_3AnyES7_EEE_EEvE7DeleterEPv', symObjAddr: 0x2439C, symBinAddr: 0x3E1C4, symSize: 0xC }
  - { offsetInCU: 0x78542, offset: 0x148F0B, size: 0x8, addend: 0x0, symName: __ZN3mlc3ffi7details8Func2StrINS0_4DictINS0_3AnyES4_EEJS5_EE5ApplyILm0EEEvRNSt3__113basic_ostreamIcNS8_11char_traitsIcEEEE, symObjAddr: 0x24584, symBinAddr: 0x3E3AC, symSize: 0x94 }
  - { offsetInCU: 0x789DF, offset: 0x1493A8, size: 0x8, addend: 0x0, symName: __ZN3mlc3ffi8Type2StrINS0_3RefINS0_7DictObjINS0_3AnyES4_EEEEE3RunEv, symObjAddr: 0x24E08, symBinAddr: 0x3EC30, symSize: 0x118 }
  - { offsetInCU: 0x791DB, offset: 0x149BA4, size: 0x8, addend: 0x0, symName: __ZN3mlc3ffi8Type2StrIPNS0_7DictObjINS0_3AnyES3_EEE3RunEv, symObjAddr: 0x24F20, symBinAddr: 0x3ED48, symSize: 0xA0 }
  - { offsetInCU: 0x798AA, offset: 0x14A273, size: 0x8, addend: 0x0, symName: __ZNK3mlc3ffi7AnyView4CastINS0_4DictINS0_3StrENS0_4ListIiEEEEEET_v, symObjAddr: 0x25920, symBinAddr: 0x3F748, symSize: 0x67C }
  - { offsetInCU: 0x7B006, offset: 0x14B9CF, size: 0x8, addend: 0x0, symName: __ZN3mlc3ffi7details8Func2StrINS0_4DictINS0_3StrENS0_4ListIiEEEEJS7_EE3RunIJLm0EEEENSt3__112basic_stringIcNSA_11char_traitsIcEENSA_9allocatorIcEEEENSA_16integer_sequenceImJXspT_EEEE, symObjAddr: 0x25470, symBinAddr: 0x3F298, symSize: 0x1DC }
  - { offsetInCU: 0x7B614, offset: 0x14BFDD, size: 0x8, addend: 0x0, symName: '__ZN3mlc3ffi7details16FuncCallUnpackedIZNKS0_3$_0clENS0_3StrEEUlNS0_4DictIS4_NS0_4ListIiEEEEE_EEvPKNS0_7FuncObjEiPKNS0_7AnyViewEPNS0_3AnyE.cold.1', symObjAddr: 0x26EE0, symBinAddr: 0x50FAC, symSize: 0x40 }
  - { offsetInCU: 0x7B660, offset: 0x14C029, size: 0x8, addend: 0x0, symName: __ZN3mlc3ffi8Type2StrINS0_4DictINS0_3StrENS0_4ListIiEEEEE3RunEv, symObjAddr: 0x256E0, symBinAddr: 0x3F508, symSize: 0x240 }
  - { offsetInCU: 0x7C669, offset: 0x14D032, size: 0x8, addend: 0x0, symName: '__ZN3mlc3ffi7details22DefaultObjectAllocatorINS1_8FuncImplIZNKS0_3$_0clENS0_3StrEEUlNS0_4DictIS5_NS0_4ListIiEEEEE_EEvE7DeleterEPv', symObjAddr: 0x25464, symBinAddr: 0x3F28C, symSize: 0xC }
  - { offsetInCU: 0x7C698, offset: 0x14D061, size: 0x8, addend: 0x0, symName: __ZN3mlc3ffi7details8Func2StrINS0_4DictINS0_3StrENS0_4ListIiEEEEJS7_EE5ApplyILm0EEEvRNSt3__113basic_ostreamIcNSA_11char_traitsIcEEEE, symObjAddr: 0x2564C, symBinAddr: 0x3F474, symSize: 0x94 }
  - { offsetInCU: 0x7CBE4, offset: 0x14D5AD, size: 0x8, addend: 0x0, symName: __ZZN3mlc3ffi7details15NestedTypeCheckINS0_4DictINS0_3StrENS0_4ListIiEEEEE3RunERK6MLCAnyENKUlPhPS9_SD_E_clESC_SD_SD_, symObjAddr: 0x26154, symBinAddr: 0x3FF7C, symSize: 0x5A0 }
  - { offsetInCU: 0x7E084, offset: 0x14EA4D, size: 0x8, addend: 0x0, symName: __ZN3mlc3ffi8Type2StrINS0_3RefINS0_7DictObjINS0_3StrENS0_4ListIiEEEEEEE3RunEv, symObjAddr: 0x25F9C, symBinAddr: 0x3FDC4, symSize: 0x118 }
  - { offsetInCU: 0x7E880, offset: 0x14F249, size: 0x8, addend: 0x0, symName: __ZN3mlc3ffi8Type2StrIPNS0_7DictObjINS0_3StrENS0_4ListIiEEEEE3RunEv, symObjAddr: 0x260B4, symBinAddr: 0x3FEDC, symSize: 0xA0 }
  - { offsetInCU: 0x7EE1B, offset: 0x14F7E4, size: 0x8, addend: 0x0, symName: _OUTLINED_FUNCTION_0, symObjAddr: 0x26F20, symBinAddr: 0x4051C, symSize: 0x8 }
  - { offsetInCU: 0x7EE33, offset: 0x14F7FC, size: 0x8, addend: 0x0, symName: _OUTLINED_FUNCTION_1, symObjAddr: 0x26F28, symBinAddr: 0x40524, symSize: 0x10 }
  - { offsetInCU: 0x7EE4B, offset: 0x14F814, size: 0x8, addend: 0x0, symName: _OUTLINED_FUNCTION_2, symObjAddr: 0x26F38, symBinAddr: 0x40534, symSize: 0x8 }
  - { offsetInCU: 0x7EE63, offset: 0x14F82C, size: 0x8, addend: 0x0, symName: _OUTLINED_FUNCTION_3, symObjAddr: 0x26F40, symBinAddr: 0x4053C, symSize: 0x8 }
  - { offsetInCU: 0x7EE7B, offset: 0x14F844, size: 0x8, addend: 0x0, symName: _OUTLINED_FUNCTION_4, symObjAddr: 0x26F48, symBinAddr: 0x40544, symSize: 0xC }
  - { offsetInCU: 0x4B, offset: 0x14F8D8, size: 0x8, addend: 0x0, symName: __ZN3mlc3ffi12_GLOBAL__N_19_bt_stateE, symObjAddr: 0x2D1A8, symBinAddr: 0x68690, symSize: 0x0 }
  - { offsetInCU: 0x1D8, offset: 0x14FA65, size: 0x8, addend: 0x0, symName: __ZN3mlc3ffi17GetTracebackLimitEv, symObjAddr: 0x0, symBinAddr: 0x434FC, symSize: 0xF0 }
  - { offsetInCU: 0x97B0, offset: 0x15903D, size: 0x8, addend: 0x0, symName: __ZN3mlc3ffi16TracebackStorageD1Ev, symObjAddr: 0xF0, symBinAddr: 0x435EC, symSize: 0x30 }
  - { offsetInCU: 0x9BC0, offset: 0x15944D, size: 0x8, addend: 0x0, symName: _MLCTraceback, symObjAddr: 0x120, symBinAddr: 0x4361C, symSize: 0x1FC }
  - { offsetInCU: 0xA2E0, offset: 0x159B6D, size: 0x8, addend: 0x0, symName: '__ZN3mlc3ffi12_GLOBAL__N_13$_08__invokeEPvPKci', symObjAddr: 0x3B0, symBinAddr: 0x43818, symSize: 0xC4 }
  - { offsetInCU: 0xA70D, offset: 0x159F9A, size: 0x8, addend: 0x0, symName: __ZNKSt3__16vectorIcNS_9allocatorIcEEE20__throw_length_errorB8ue170006Ev, symObjAddr: 0x76C, symBinAddr: 0x438DC, symSize: 0x14 }
  - { offsetInCU: 0xA736, offset: 0x159FC3, size: 0x8, addend: 0x0, symName: '__ZZN3mlc3ffi12_GLOBAL__N_113TracebackImplEvEN3$_18__invokeEPvmPKciS5_', symObjAddr: 0x780, symBinAddr: 0x438F0, symSize: 0x31C }
  - { offsetInCU: 0xA7C2, offset: 0x15A04F, size: 0x8, addend: 0x0, symName: '__ZZN3mlc3ffi12_GLOBAL__N_113TracebackImplEvEN3$_18__invokeEPvmPKciS5_', symObjAddr: 0x780, symBinAddr: 0x438F0, symSize: 0x31C }
  - { offsetInCU: 0xAE80, offset: 0x15A70D, size: 0x8, addend: 0x0, symName: __ZN3mlc3ffi16TracebackStorage6AppendEPKc, symObjAddr: 0xA9C, symBinAddr: 0x43C0C, symSize: 0x1C0 }
  - { offsetInCU: 0xB381, offset: 0x15AC0E, size: 0x8, addend: 0x0, symName: '__ZZZN3mlc3ffi12_GLOBAL__N_113TracebackImplEvENK3$_1clEPvmPKciS5_ENUlS3_mS5_mmE_8__invokeES3_mS5_mm', symObjAddr: 0xC5C, symBinAddr: 0x43DCC, symSize: 0x8 }
  - { offsetInCU: 0xB6D9, offset: 0x15AF66, size: 0x8, addend: 0x0, symName: __ZNSt3__16vectorIcNS_9allocatorIcEEE18__insert_with_sizeB8ue170006IPKcS6_EENS_11__wrap_iterIPcEENS7_IS6_EET_T0_l, symObjAddr: 0xC68, symBinAddr: 0x43DD8, symSize: 0x2A8 }
  - { offsetInCU: 0xC244, offset: 0x15BAD1, size: 0x8, addend: 0x0, symName: '__ZZN3mlc3ffi12_GLOBAL__N_113TracebackImplEvEN3$_28__invokeEPvPKci', symObjAddr: 0xF10, symBinAddr: 0x44080, symSize: 0x4 }
  - { offsetInCU: 0xC32C, offset: 0x15BBB9, size: 0x8, addend: 0x0, symName: '__ZZZN3mlc3ffi12_GLOBAL__N_113TracebackImplEvENK3$_1clEPvmPKciS5_ENUlS3_mS5_mmE_8__invokeES3_mS5_mm', symObjAddr: 0xC5C, symBinAddr: 0x43DCC, symSize: 0x8 }
  - { offsetInCU: 0xC370, offset: 0x15BBFD, size: 0x8, addend: 0x0, symName: '__ZZZN3mlc3ffi12_GLOBAL__N_113TracebackImplEvENK3$_1clEPvmPKciS5_ENUlS3_mS5_mmE_8__invokeES3_mS5_mm', symObjAddr: 0xC5C, symBinAddr: 0x43DCC, symSize: 0x8 }
  - { offsetInCU: 0xC391, offset: 0x15BC1E, size: 0x8, addend: 0x0, symName: '__ZZZN3mlc3ffi12_GLOBAL__N_113TracebackImplEvENK3$_1clEPvmPKciS5_ENUlS3_S5_iE_8__invokeES3_S5_i', symObjAddr: 0xC64, symBinAddr: 0x43DD4, symSize: 0x4 }
  - { offsetInCU: 0xC5F6, offset: 0x15BE83, size: 0x8, addend: 0x0, symName: '__ZZN3mlc3ffi12_GLOBAL__N_113TracebackImplEvEN3$_28__invokeEPvPKci', symObjAddr: 0xF10, symBinAddr: 0x44080, symSize: 0x4 }
...
